Archive member included to satisfy reference by file (symbol)

/Applications/microchip/xc8/v3.00/avr/bin/../lib/gcc/avr/5.4.0/avr5/libgcc.a(_copy_data.o)
                              build/default/production/APP_Layer/main.o (__do_copy_data)
/Applications/microchip/xc8/v3.00/avr/bin/../lib/gcc/avr/5.4.0/../../../../avr/lib/avr5/libc.a(exit.o)
                              /Applications/microchip/mplabx/v6.25/packs/Microchip/ATmega_DFP/3.3.279/xc8/avr/lib/avr5/crtatmega32.o (exit)
/Applications/microchip/xc8/v3.00/avr/bin/../lib/gcc/avr/5.4.0/../../../../avr/lib/avr5/libc.a(__sio_sprintf_doux.o)
                              build/default/production/ECUAL_Layer/Chr_Lcd/ecual_chr_lcd.o (_sprintf_cdopuxX)
/Applications/microchip/xc8/v3.00/avr/bin/../lib/gcc/avr/5.4.0/../../../../avr/lib/avr5/libc.a(__fmt_d.o)
                              /Applications/microchip/xc8/v3.00/avr/bin/../lib/gcc/avr/5.4.0/../../../../avr/lib/avr5/libc.a(__sio_sprintf_doux.o) (__fmt_d_needed)
/Applications/microchip/xc8/v3.00/avr/bin/../lib/gcc/avr/5.4.0/../../../../avr/lib/avr5/libc.a(__fmt_o.o)
                              /Applications/microchip/xc8/v3.00/avr/bin/../lib/gcc/avr/5.4.0/../../../../avr/lib/avr5/libc.a(__sio_sprintf_doux.o) (__fmt_o_needed)
/Applications/microchip/xc8/v3.00/avr/bin/../lib/gcc/avr/5.4.0/../../../../avr/lib/avr5/libc.a(__fmt_s.o)
                              /Applications/microchip/xc8/v3.00/avr/bin/../lib/gcc/avr/5.4.0/../../../../avr/lib/avr5/libc.a(__sio_sprintf_doux.o) (__fmt_s_needed)
/Applications/microchip/xc8/v3.00/avr/bin/../lib/gcc/avr/5.4.0/../../../../avr/lib/avr5/libc.a(__fmt_u.o)
                              /Applications/microchip/xc8/v3.00/avr/bin/../lib/gcc/avr/5.4.0/../../../../avr/lib/avr5/libc.a(__fmt_d.o) (__cvt_u)
/Applications/microchip/xc8/v3.00/avr/bin/../lib/gcc/avr/5.4.0/../../../../avr/lib/avr5/libc.a(__fmt_x.o)
                              /Applications/microchip/xc8/v3.00/avr/bin/../lib/gcc/avr/5.4.0/../../../../avr/lib/avr5/libc.a(__sio_sprintf_doux.o) (__fmt_x_needed)
/Applications/microchip/xc8/v3.00/avr/bin/../lib/gcc/avr/5.4.0/../../../../avr/lib/avr5/libc.a(__pop_int.o)
                              /Applications/microchip/xc8/v3.00/avr/bin/../lib/gcc/avr/5.4.0/../../../../avr/lib/avr5/libc.a(__sio_sprintf_doux.o) (__pop_int_needed)
/Applications/microchip/xc8/v3.00/avr/bin/../lib/gcc/avr/5.4.0/../../../../avr/lib/avr5/libc.a(__printf_core.o)
                              /Applications/microchip/xc8/v3.00/avr/bin/../lib/gcc/avr/5.4.0/../../../../avr/lib/avr5/libc.a(__fmt_d.o) (__pad)
/Applications/microchip/xc8/v3.00/avr/bin/../lib/gcc/avr/5.4.0/../../../../avr/lib/avr5/libc.a(fputc.o)
                              /Applications/microchip/xc8/v3.00/avr/bin/../lib/gcc/avr/5.4.0/../../../../avr/lib/avr5/libc.a(__printf_core.o) (fputc)
/Applications/microchip/xc8/v3.00/avr/bin/../lib/gcc/avr/5.4.0/../../../../avr/lib/avr5/libc.a(strlen.o)
                              /Applications/microchip/xc8/v3.00/avr/bin/../lib/gcc/avr/5.4.0/../../../../avr/lib/avr5/libc.a(__fmt_s.o) (strlen)
/Applications/microchip/xc8/v3.00/avr/bin/../lib/gcc/avr/5.4.0/../../../../avr/lib/avr5/libc.a(tolower.o)
                              /Applications/microchip/xc8/v3.00/avr/bin/../lib/gcc/avr/5.4.0/../../../../avr/lib/avr5/libc.a(__printf_core.o) (tolower)
/Applications/microchip/xc8/v3.00/avr/bin/../lib/gcc/avr/5.4.0/../../../../avr/lib/avr5/libc.a(toupper.o)
                              /Applications/microchip/xc8/v3.00/avr/bin/../lib/gcc/avr/5.4.0/../../../../avr/lib/avr5/libc.a(__fmt_x.o) (toupper)
/Applications/microchip/xc8/v3.00/avr/bin/../lib/gcc/avr/5.4.0/../../../../avr/lib/avr5/libc.a(errno.o)
                              /Applications/microchip/xc8/v3.00/avr/bin/../lib/gcc/avr/5.4.0/../../../../avr/lib/avr5/libc.a(__printf_core.o) (__errno_val)
/Applications/microchip/xc8/v3.00/avr/bin/../lib/gcc/avr/5.4.0/../../../../avr/lib/avr5/libc.a(_Exit.o)
                              /Applications/microchip/xc8/v3.00/avr/bin/../lib/gcc/avr/5.4.0/../../../../avr/lib/avr5/libc.a(exit.o) (_Exit)
/Applications/microchip/xc8/v3.00/avr/bin/../lib/gcc/avr/5.4.0/../../../../avr/lib/avr5/libc.a(__int_vsprintf.o)
                              /Applications/microchip/xc8/v3.00/avr/bin/../lib/gcc/avr/5.4.0/../../../../avr/lib/avr5/libc.a(__sio_sprintf_doux.o) (__vsprintf)
/Applications/microchip/xc8/v3.00/avr/bin/../lib/gcc/avr/5.4.0/../../../../avr/lib/avr5/libc.a(__int_vsnprintf.o)
                              /Applications/microchip/xc8/v3.00/avr/bin/../lib/gcc/avr/5.4.0/../../../../avr/lib/avr5/libc.a(__int_vsprintf.o) (__vsnprintf)
/Applications/microchip/xc8/v3.00/avr/bin/../lib/gcc/avr/5.4.0/../../../../avr/lib/avr5/libc.a(__int_vfprintf.o)
                              /Applications/microchip/xc8/v3.00/avr/bin/../lib/gcc/avr/5.4.0/../../../../avr/lib/avr5/libc.a(__int_vsnprintf.o) (__vfprintf)
/Applications/microchip/xc8/v3.00/avr/bin/../lib/gcc/avr/5.4.0/avr5/libgcc.a(_udivmodsi4.o)
                              /Applications/microchip/xc8/v3.00/avr/bin/../lib/gcc/avr/5.4.0/../../../../avr/lib/avr5/libc.a(__fmt_u.o) (__udivmodsi4)
/Applications/microchip/xc8/v3.00/avr/bin/../lib/gcc/avr/5.4.0/avr5/libgcc.a(_exit.o)
                              /Applications/microchip/xc8/v3.00/avr/bin/../lib/gcc/avr/5.4.0/../../../../avr/lib/avr5/libc.a(_Exit.o) (_exit)
/Applications/microchip/xc8/v3.00/avr/bin/../lib/gcc/avr/5.4.0/avr5/libgcc.a(_prologue.o)
                              /Applications/microchip/xc8/v3.00/avr/bin/../lib/gcc/avr/5.4.0/../../../../avr/lib/avr5/libc.a(__sio_sprintf_doux.o) (__prologue_saves__)
/Applications/microchip/xc8/v3.00/avr/bin/../lib/gcc/avr/5.4.0/avr5/libgcc.a(_epilogue.o)
                              /Applications/microchip/xc8/v3.00/avr/bin/../lib/gcc/avr/5.4.0/../../../../avr/lib/avr5/libc.a(__sio_sprintf_doux.o) (__epilogue_restores__)

Allocating common symbols
Common symbol       size              file

__errno_val         0x2               /Applications/microchip/xc8/v3.00/avr/bin/../lib/gcc/avr/5.4.0/../../../../avr/lib/avr5/libc.a(errno.o)

Discarded input sections

 .data          0x0000000000000000        0x0 /Applications/microchip/mplabx/v6.25/packs/Microchip/ATmega_DFP/3.3.279/xc8/avr/lib/avr5/crtatmega32.o
 .bss           0x0000000000000000        0x0 /Applications/microchip/mplabx/v6.25/packs/Microchip/ATmega_DFP/3.3.279/xc8/avr/lib/avr5/crtatmega32.o
 .text          0x0000000000000000        0x0 build/default/production/Codes/ECUAL/7SEG/app1.o
 .data          0x0000000000000000        0x0 build/default/production/Codes/ECUAL/7SEG/app1.o
 .bss           0x0000000000000000        0x0 build/default/production/Codes/ECUAL/7SEG/app1.o
 .debug_line    0x0000000000000000        0x0 build/default/production/Codes/ECUAL/7SEG/app1.o
 .debug_str     0x0000000000000000        0x0 build/default/production/Codes/ECUAL/7SEG/app1.o
 .comment       0x0000000000000000       0x30 build/default/production/Codes/ECUAL/7SEG/app1.o
 .text          0x0000000000000000        0x0 build/default/production/Codes/ECUAL/BTN/app1.o
 .data          0x0000000000000000        0x0 build/default/production/Codes/ECUAL/BTN/app1.o
 .bss           0x0000000000000000        0x0 build/default/production/Codes/ECUAL/BTN/app1.o
 .debug_line    0x0000000000000000        0x0 build/default/production/Codes/ECUAL/BTN/app1.o
 .debug_str     0x0000000000000000        0x0 build/default/production/Codes/ECUAL/BTN/app1.o
 .comment       0x0000000000000000       0x30 build/default/production/Codes/ECUAL/BTN/app1.o
 .text          0x0000000000000000        0x0 build/default/production/Codes/ECUAL/Chr_Lcd/app1.o
 .data          0x0000000000000000        0x0 build/default/production/Codes/ECUAL/Chr_Lcd/app1.o
 .bss           0x0000000000000000        0x0 build/default/production/Codes/ECUAL/Chr_Lcd/app1.o
 .debug_line    0x0000000000000000        0x0 build/default/production/Codes/ECUAL/Chr_Lcd/app1.o
 .debug_str     0x0000000000000000        0x0 build/default/production/Codes/ECUAL/Chr_Lcd/app1.o
 .comment       0x0000000000000000       0x30 build/default/production/Codes/ECUAL/Chr_Lcd/app1.o
 .text          0x0000000000000000        0x0 build/default/production/Codes/ECUAL/DC_Motor/app1.o
 .data          0x0000000000000000        0x0 build/default/production/Codes/ECUAL/DC_Motor/app1.o
 .bss           0x0000000000000000        0x0 build/default/production/Codes/ECUAL/DC_Motor/app1.o
 .debug_line    0x0000000000000000        0x0 build/default/production/Codes/ECUAL/DC_Motor/app1.o
 .debug_str     0x0000000000000000        0x0 build/default/production/Codes/ECUAL/DC_Motor/app1.o
 .comment       0x0000000000000000       0x30 build/default/production/Codes/ECUAL/DC_Motor/app1.o
 .text          0x0000000000000000        0x0 build/default/production/Codes/ECUAL/Keypad/app1.o
 .data          0x0000000000000000        0x0 build/default/production/Codes/ECUAL/Keypad/app1.o
 .bss           0x0000000000000000        0x0 build/default/production/Codes/ECUAL/Keypad/app1.o
 .debug_line    0x0000000000000000        0x0 build/default/production/Codes/ECUAL/Keypad/app1.o
 .debug_str     0x0000000000000000        0x0 build/default/production/Codes/ECUAL/Keypad/app1.o
 .comment       0x0000000000000000       0x30 build/default/production/Codes/ECUAL/Keypad/app1.o
 .text          0x0000000000000000        0x0 build/default/production/Codes/ECUAL/LED/app1.o
 .data          0x0000000000000000        0x0 build/default/production/Codes/ECUAL/LED/app1.o
 .bss           0x0000000000000000        0x0 build/default/production/Codes/ECUAL/LED/app1.o
 .debug_line    0x0000000000000000        0x0 build/default/production/Codes/ECUAL/LED/app1.o
 .debug_str     0x0000000000000000        0x0 build/default/production/Codes/ECUAL/LED/app1.o
 .comment       0x0000000000000000       0x30 build/default/production/Codes/ECUAL/LED/app1.o
 .text          0x0000000000000000        0x0 build/default/production/Codes/ECUAL/Relay/app1.o
 .data          0x0000000000000000        0x0 build/default/production/Codes/ECUAL/Relay/app1.o
 .bss           0x0000000000000000        0x0 build/default/production/Codes/ECUAL/Relay/app1.o
 .debug_line    0x0000000000000000        0x0 build/default/production/Codes/ECUAL/Relay/app1.o
 .debug_str     0x0000000000000000        0x0 build/default/production/Codes/ECUAL/Relay/app1.o
 .comment       0x0000000000000000       0x30 build/default/production/Codes/ECUAL/Relay/app1.o
 .text          0x0000000000000000        0x0 build/default/production/Codes/MCAL/GPIO/app1.o
 .data          0x0000000000000000        0x0 build/default/production/Codes/MCAL/GPIO/app1.o
 .bss           0x0000000000000000        0x0 build/default/production/Codes/MCAL/GPIO/app1.o
 .debug_line    0x0000000000000000        0x0 build/default/production/Codes/MCAL/GPIO/app1.o
 .debug_str     0x0000000000000000        0x0 build/default/production/Codes/MCAL/GPIO/app1.o
 .comment       0x0000000000000000       0x30 build/default/production/Codes/MCAL/GPIO/app1.o
 .text          0x0000000000000000        0x0 build/default/production/APP_Layer/main.o
 .data          0x0000000000000000        0x0 build/default/production/APP_Layer/main.o
 .bss           0x0000000000000000        0x0 build/default/production/APP_Layer/main.o
 .text.Application_Init
                0x0000000000000000        0x6 build/default/production/APP_Layer/main.o
 .text          0x0000000000000000        0x0 build/default/production/ECUAL_Layer/7SEG/ecual_7seg.o
 .data          0x0000000000000000        0x0 build/default/production/ECUAL_Layer/7SEG/ecual_7seg.o
 .bss           0x0000000000000000        0x0 build/default/production/ECUAL_Layer/7SEG/ecual_7seg.o
 .text.GPIO_Segment_INIT
                0x0000000000000000       0x30 build/default/production/ECUAL_Layer/7SEG/ecual_7seg.o
 .text.GPIO_Segment_Read_Number
                0x0000000000000000       0x80 build/default/production/ECUAL_Layer/7SEG/ecual_7seg.o
 .text.GPIO_Segment_Write_Number
                0x0000000000000000       0x56 build/default/production/ECUAL_Layer/7SEG/ecual_7seg.o
 .debug_info    0x0000000000000000      0x635 build/default/production/ECUAL_Layer/7SEG/ecual_7seg.o
 .debug_abbrev  0x0000000000000000      0x123 build/default/production/ECUAL_Layer/7SEG/ecual_7seg.o
 .debug_loc     0x0000000000000000      0x2ca build/default/production/ECUAL_Layer/7SEG/ecual_7seg.o
 .debug_aranges
                0x0000000000000000       0x30 build/default/production/ECUAL_Layer/7SEG/ecual_7seg.o
 .debug_ranges  0x0000000000000000       0x20 build/default/production/ECUAL_Layer/7SEG/ecual_7seg.o
 .debug_line    0x0000000000000000      0x19a build/default/production/ECUAL_Layer/7SEG/ecual_7seg.o
 .debug_str     0x0000000000000000       0x3e build/default/production/ECUAL_Layer/7SEG/ecual_7seg.o
 .comment       0x0000000000000000       0x30 build/default/production/ECUAL_Layer/7SEG/ecual_7seg.o
 .debug_frame   0x0000000000000000       0xa8 build/default/production/ECUAL_Layer/7SEG/ecual_7seg.o
 .text          0x0000000000000000        0x0 build/default/production/ECUAL_Layer/BTN/ecual_btn.o
 .data          0x0000000000000000        0x0 build/default/production/ECUAL_Layer/BTN/ecual_btn.o
 .bss           0x0000000000000000        0x0 build/default/production/ECUAL_Layer/BTN/ecual_btn.o
 .text.GPIO_Btn_INIT
                0x0000000000000000        0xe build/default/production/ECUAL_Layer/BTN/ecual_btn.o
 .text.GPIO_Btn_Read_State
                0x0000000000000000       0x8a build/default/production/ECUAL_Layer/BTN/ecual_btn.o
 .debug_info    0x0000000000000000      0x575 build/default/production/ECUAL_Layer/BTN/ecual_btn.o
 .debug_abbrev  0x0000000000000000      0x102 build/default/production/ECUAL_Layer/BTN/ecual_btn.o
 .debug_loc     0x0000000000000000      0x17c build/default/production/ECUAL_Layer/BTN/ecual_btn.o
 .debug_aranges
                0x0000000000000000       0x28 build/default/production/ECUAL_Layer/BTN/ecual_btn.o
 .debug_ranges  0x0000000000000000       0x18 build/default/production/ECUAL_Layer/BTN/ecual_btn.o
 .debug_line    0x0000000000000000      0x167 build/default/production/ECUAL_Layer/BTN/ecual_btn.o
 .debug_str     0x0000000000000000       0x2c build/default/production/ECUAL_Layer/BTN/ecual_btn.o
 .comment       0x0000000000000000       0x30 build/default/production/ECUAL_Layer/BTN/ecual_btn.o
 .debug_frame   0x0000000000000000       0x58 build/default/production/ECUAL_Layer/BTN/ecual_btn.o
 .text          0x0000000000000000        0x0 build/default/production/ECUAL_Layer/Chr_Lcd/ecual_chr_lcd.o
 .data          0x0000000000000000        0x0 build/default/production/ECUAL_Layer/Chr_Lcd/ecual_chr_lcd.o
 .bss           0x0000000000000000        0x0 build/default/production/ECUAL_Layer/Chr_Lcd/ecual_chr_lcd.o
 .text.Chr_Lcd_4Bit_Set_Cursor
                0x0000000000000000       0x4a build/default/production/ECUAL_Layer/Chr_Lcd/ecual_chr_lcd.o
 .text.GPIO_Chr_Lcd_4Bit_Send_Character
                0x0000000000000000       0x4a build/default/production/ECUAL_Layer/Chr_Lcd/ecual_chr_lcd.o
 .text.GPIO_Chr_Lcd_4Bit_Send_Character_Pos
                0x0000000000000000       0x2c build/default/production/ECUAL_Layer/Chr_Lcd/ecual_chr_lcd.o
 .text.GPIO_Chr_Lcd_4Bit_Send_String
                0x0000000000000000       0x3e build/default/production/ECUAL_Layer/Chr_Lcd/ecual_chr_lcd.o
 .text.GPIO_Chr_Lcd_4Bit_Send_String_Pos
                0x0000000000000000       0x3a build/default/production/ECUAL_Layer/Chr_Lcd/ecual_chr_lcd.o
 .text.GPIO_Chr_Lcd_4Bit_Send_Custom_Character
                0x0000000000000000       0x78 build/default/production/ECUAL_Layer/Chr_Lcd/ecual_chr_lcd.o
 .text.Chr_Lcd_8Bit_Set_Cursor
                0x0000000000000000       0x4a build/default/production/ECUAL_Layer/Chr_Lcd/ecual_chr_lcd.o
 .text.GPIO_Chr_Lcd_8Bit_Send_Character
                0x0000000000000000       0x66 build/default/production/ECUAL_Layer/Chr_Lcd/ecual_chr_lcd.o
 .text.GPIO_Chr_Lcd_8Bit_Send_Character_Pos
                0x0000000000000000       0x2c build/default/production/ECUAL_Layer/Chr_Lcd/ecual_chr_lcd.o
 .text.GPIO_Chr_Lcd_8Bit_Send_String
                0x0000000000000000       0x3e build/default/production/ECUAL_Layer/Chr_Lcd/ecual_chr_lcd.o
 .text.GPIO_Chr_Lcd_8Bit_Send_String_Pos
                0x0000000000000000       0x3a build/default/production/ECUAL_Layer/Chr_Lcd/ecual_chr_lcd.o
 .text.GPIO_Chr_Lcd_8Bit_Send_Custom_Character
                0x0000000000000000       0x78 build/default/production/ECUAL_Layer/Chr_Lcd/ecual_chr_lcd.o
 .rodata        0x0000000000000000        0x3 build/default/production/ECUAL_Layer/Chr_Lcd/ecual_chr_lcd.o
 .text.Convert_Byte_To_String
                0x0000000000000000       0x3a build/default/production/ECUAL_Layer/Chr_Lcd/ecual_chr_lcd.o
 .text.Convert_Short_To_String
                0x0000000000000000       0x3a build/default/production/ECUAL_Layer/Chr_Lcd/ecual_chr_lcd.o
 .text.Convert_Integer_To_String
                0x0000000000000000       0x42 build/default/production/ECUAL_Layer/Chr_Lcd/ecual_chr_lcd.o
 .text          0x0000000000000000        0x0 build/default/production/ECUAL_Layer/DC_Motor/ecual_dc_motor.o
 .data          0x0000000000000000        0x0 build/default/production/ECUAL_Layer/DC_Motor/ecual_dc_motor.o
 .bss           0x0000000000000000        0x0 build/default/production/ECUAL_Layer/DC_Motor/ecual_dc_motor.o
 .text.GPIO_DC_Motor_INIT
                0x0000000000000000       0x20 build/default/production/ECUAL_Layer/DC_Motor/ecual_dc_motor.o
 .text.GPIO_DC_Motor_Read_Rotation_State
                0x0000000000000000       0x7c build/default/production/ECUAL_Layer/DC_Motor/ecual_dc_motor.o
 .text.GPIO_DC_Motor_Brake
                0x0000000000000000       0x24 build/default/production/ECUAL_Layer/DC_Motor/ecual_dc_motor.o
 .text.GPIO_DC_Motor_Rotate_ClockWise
                0x0000000000000000       0x24 build/default/production/ECUAL_Layer/DC_Motor/ecual_dc_motor.o
 .text.GPIO_DC_Motor_Rotate_Counter_ClockWise
                0x0000000000000000       0x24 build/default/production/ECUAL_Layer/DC_Motor/ecual_dc_motor.o
 .text.GPIO_DC_Motor_Toggle_Rotation_Direction
                0x0000000000000000       0x42 build/default/production/ECUAL_Layer/DC_Motor/ecual_dc_motor.o
 .debug_info    0x0000000000000000      0x8f2 build/default/production/ECUAL_Layer/DC_Motor/ecual_dc_motor.o
 .debug_abbrev  0x0000000000000000      0x15b build/default/production/ECUAL_Layer/DC_Motor/ecual_dc_motor.o
 .debug_loc     0x0000000000000000      0x433 build/default/production/ECUAL_Layer/DC_Motor/ecual_dc_motor.o
 .debug_aranges
                0x0000000000000000       0x48 build/default/production/ECUAL_Layer/DC_Motor/ecual_dc_motor.o
 .debug_ranges  0x0000000000000000       0x38 build/default/production/ECUAL_Layer/DC_Motor/ecual_dc_motor.o
 .debug_line    0x0000000000000000      0x21e build/default/production/ECUAL_Layer/DC_Motor/ecual_dc_motor.o
 .debug_str     0x0000000000000000       0x4a build/default/production/ECUAL_Layer/DC_Motor/ecual_dc_motor.o
 .comment       0x0000000000000000       0x30 build/default/production/ECUAL_Layer/DC_Motor/ecual_dc_motor.o
 .debug_frame   0x0000000000000000       0xe4 build/default/production/ECUAL_Layer/DC_Motor/ecual_dc_motor.o
 .text          0x0000000000000000        0x0 build/default/production/ECUAL_Layer/Keypad/ecual_keypad.o
 .data          0x0000000000000000        0x0 build/default/production/ECUAL_Layer/Keypad/ecual_keypad.o
 .bss           0x0000000000000000        0x0 build/default/production/ECUAL_Layer/Keypad/ecual_keypad.o
 .text.GPIO_Keypad_INIT
                0x0000000000000000       0x4e build/default/production/ECUAL_Layer/Keypad/ecual_keypad.o
 .text.GPIO_Keypad_Read_Data
                0x0000000000000000       0xf0 build/default/production/ECUAL_Layer/Keypad/ecual_keypad.o
 .rodata.Keypad_Btns
                0x0000000000000000       0x10 build/default/production/ECUAL_Layer/Keypad/ecual_keypad.o
 .debug_info    0x0000000000000000      0x76a build/default/production/ECUAL_Layer/Keypad/ecual_keypad.o
 .debug_abbrev  0x0000000000000000      0x1a9 build/default/production/ECUAL_Layer/Keypad/ecual_keypad.o
 .debug_loc     0x0000000000000000      0x2e6 build/default/production/ECUAL_Layer/Keypad/ecual_keypad.o
 .debug_aranges
                0x0000000000000000       0x28 build/default/production/ECUAL_Layer/Keypad/ecual_keypad.o
 .debug_ranges  0x0000000000000000       0x18 build/default/production/ECUAL_Layer/Keypad/ecual_keypad.o
 .debug_line    0x0000000000000000      0x20f build/default/production/ECUAL_Layer/Keypad/ecual_keypad.o
 .debug_str     0x0000000000000000       0x4f build/default/production/ECUAL_Layer/Keypad/ecual_keypad.o
 .comment       0x0000000000000000       0x30 build/default/production/ECUAL_Layer/Keypad/ecual_keypad.o
 .debug_frame   0x0000000000000000       0xa0 build/default/production/ECUAL_Layer/Keypad/ecual_keypad.o
 .text          0x0000000000000000        0x0 build/default/production/ECUAL_Layer/LED/ecual_led.o
 .data          0x0000000000000000        0x0 build/default/production/ECUAL_Layer/LED/ecual_led.o
 .bss           0x0000000000000000        0x0 build/default/production/ECUAL_Layer/LED/ecual_led.o
 .text.GPIO_Led_Read_Logic
                0x0000000000000000       0x88 build/default/production/ECUAL_Layer/LED/ecual_led.o
 .text.GPIO_Led_Turn_Off
                0x0000000000000000       0x2a build/default/production/ECUAL_Layer/LED/ecual_led.o
 .text.GPIO_Led_Turn_On
                0x0000000000000000       0x2a build/default/production/ECUAL_Layer/LED/ecual_led.o
 .text          0x0000000000000000        0x0 build/default/production/ECUAL_Layer/Relay/ecual_relay.o
 .data          0x0000000000000000        0x0 build/default/production/ECUAL_Layer/Relay/ecual_relay.o
 .bss           0x0000000000000000        0x0 build/default/production/ECUAL_Layer/Relay/ecual_relay.o
 .text.GPIO_Relay_INIT
                0x0000000000000000        0xe build/default/production/ECUAL_Layer/Relay/ecual_relay.o
 .text.GPIO_Relay_Read_State
                0x0000000000000000       0x46 build/default/production/ECUAL_Layer/Relay/ecual_relay.o
 .text.GPIO_Relay_Turn_On
                0x0000000000000000       0x10 build/default/production/ECUAL_Layer/Relay/ecual_relay.o
 .text.GPIO_Relay_Turn_Off
                0x0000000000000000       0x10 build/default/production/ECUAL_Layer/Relay/ecual_relay.o
 .text.GPIO_Relay_Turn_Toggle
                0x0000000000000000        0xe build/default/production/ECUAL_Layer/Relay/ecual_relay.o
 .debug_info    0x0000000000000000      0x6a3 build/default/production/ECUAL_Layer/Relay/ecual_relay.o
 .debug_abbrev  0x0000000000000000      0x120 build/default/production/ECUAL_Layer/Relay/ecual_relay.o
 .debug_loc     0x0000000000000000      0x2fa build/default/production/ECUAL_Layer/Relay/ecual_relay.o
 .debug_aranges
                0x0000000000000000       0x40 build/default/production/ECUAL_Layer/Relay/ecual_relay.o
 .debug_ranges  0x0000000000000000       0x30 build/default/production/ECUAL_Layer/Relay/ecual_relay.o
 .debug_line    0x0000000000000000      0x1b0 build/default/production/ECUAL_Layer/Relay/ecual_relay.o
 .debug_str     0x0000000000000000       0x5a build/default/production/ECUAL_Layer/Relay/ecual_relay.o
 .comment       0x0000000000000000       0x30 build/default/production/ECUAL_Layer/Relay/ecual_relay.o
 .debug_frame   0x0000000000000000       0x80 build/default/production/ECUAL_Layer/Relay/ecual_relay.o
 .text          0x0000000000000000        0x0 build/default/production/ECUAL_Layer/ECUAL_INIT.o
 .data          0x0000000000000000        0x0 build/default/production/ECUAL_Layer/ECUAL_INIT.o
 .bss           0x0000000000000000        0x0 build/default/production/ECUAL_Layer/ECUAL_INIT.o
 .text          0x0000000000000000        0x0 build/default/production/MCAL_Layer/GPIO/hal_gpio.o
 .data          0x0000000000000000        0x0 build/default/production/MCAL_Layer/GPIO/hal_gpio.o
 .bss           0x0000000000000000        0x0 build/default/production/MCAL_Layer/GPIO/hal_gpio.o
 .text.GPIO_Pin_Get_Direction_Status
                0x0000000000000000       0x4a build/default/production/MCAL_Layer/GPIO/hal_gpio.o
 .text.GPIO_Pin_Read_Logic
                0x0000000000000000       0x4a build/default/production/MCAL_Layer/GPIO/hal_gpio.o
 .text.GPIO_Port_Direction_INIT
                0x0000000000000000       0x20 build/default/production/MCAL_Layer/GPIO/hal_gpio.o
 .text.GPIO_Port_Get_Direction_Status
                0x0000000000000000       0x2e build/default/production/MCAL_Layer/GPIO/hal_gpio.o
 .text.GPIO_Port_Write_Logic
                0x0000000000000000       0x20 build/default/production/MCAL_Layer/GPIO/hal_gpio.o
 .text.GPIO_Port_Read_Logic
                0x0000000000000000       0x2e build/default/production/MCAL_Layer/GPIO/hal_gpio.o
 .text.GPIO_Port_Toggle_Logic
                0x0000000000000000       0x24 build/default/production/MCAL_Layer/GPIO/hal_gpio.o
 .text.GPIO_Port_INIT
                0x0000000000000000       0x30 build/default/production/MCAL_Layer/GPIO/hal_gpio.o
 .data.PIN_REGs
                0x0000000000000000        0x8 build/default/production/MCAL_Layer/GPIO/hal_gpio.o
 .text          0x0000000000000000        0x0 build/default/production/MCAL_Layer/device_cfg.o
 .data          0x0000000000000000        0x0 build/default/production/MCAL_Layer/device_cfg.o
 .bss           0x0000000000000000        0x0 build/default/production/MCAL_Layer/device_cfg.o
 .debug_line    0x0000000000000000        0x0 build/default/production/MCAL_Layer/device_cfg.o
 .debug_str     0x0000000000000000        0x0 build/default/production/MCAL_Layer/device_cfg.o
 .comment       0x0000000000000000       0x30 build/default/production/MCAL_Layer/device_cfg.o
 .text          0x0000000000000000        0x0 build/default/production/MCAL_Layer/Interrupt/hal_ext_interrupt.o
 .data          0x0000000000000000        0x0 build/default/production/MCAL_Layer/Interrupt/hal_ext_interrupt.o
 .bss           0x0000000000000000        0x0 build/default/production/MCAL_Layer/Interrupt/hal_ext_interrupt.o
 .text.External_Interrupt_INTx_DEINIT
                0x0000000000000000       0x1e build/default/production/MCAL_Layer/Interrupt/hal_ext_interrupt.o
 .text          0x0000000000000000        0x0 build/default/production/MCAL_Layer/Interrupt/hal_int_interrupt.o
 .data          0x0000000000000000        0x0 build/default/production/MCAL_Layer/Interrupt/hal_int_interrupt.o
 .bss           0x0000000000000000        0x0 build/default/production/MCAL_Layer/Interrupt/hal_int_interrupt.o
 .debug_info    0x0000000000000000      0x2c8 build/default/production/MCAL_Layer/Interrupt/hal_int_interrupt.o
 .debug_abbrev  0x0000000000000000       0x1b build/default/production/MCAL_Layer/Interrupt/hal_int_interrupt.o
 .debug_aranges
                0x0000000000000000       0x18 build/default/production/MCAL_Layer/Interrupt/hal_int_interrupt.o
 .debug_line    0x0000000000000000       0x1a build/default/production/MCAL_Layer/Interrupt/hal_int_interrupt.o
 .debug_str     0x0000000000000000        0x0 build/default/production/MCAL_Layer/Interrupt/hal_int_interrupt.o
 .comment       0x0000000000000000       0x30 build/default/production/MCAL_Layer/Interrupt/hal_int_interrupt.o
 .text          0x0000000000000000        0x0 build/default/production/MCAL_Layer/Interrupt/hal_interrupt_mng.o
 .data          0x0000000000000000        0x0 build/default/production/MCAL_Layer/Interrupt/hal_interrupt_mng.o
 .bss           0x0000000000000000        0x0 build/default/production/MCAL_Layer/Interrupt/hal_interrupt_mng.o
 .text          0x0000000000000000        0x0 build/default/production/Codes/MCAL/Interrupt/app1.o
 .data          0x0000000000000000        0x0 build/default/production/Codes/MCAL/Interrupt/app1.o
 .bss           0x0000000000000000        0x0 build/default/production/Codes/MCAL/Interrupt/app1.o
 .debug_line    0x0000000000000000        0x0 build/default/production/Codes/MCAL/Interrupt/app1.o
 .debug_str     0x0000000000000000        0x0 build/default/production/Codes/MCAL/Interrupt/app1.o
 .comment       0x0000000000000000       0x30 build/default/production/Codes/MCAL/Interrupt/app1.o
 .text          0x0000000000000000        0x0 /Applications/microchip/xc8/v3.00/avr/bin/../lib/gcc/avr/5.4.0/avr5/libgcc.a(_copy_data.o)
 .data          0x0000000000000000        0x0 /Applications/microchip/xc8/v3.00/avr/bin/../lib/gcc/avr/5.4.0/avr5/libgcc.a(_copy_data.o)
 .bss           0x0000000000000000        0x0 /Applications/microchip/xc8/v3.00/avr/bin/../lib/gcc/avr/5.4.0/avr5/libgcc.a(_copy_data.o)
 .text.libgcc.mul
                0x0000000000000000        0x0 /Applications/microchip/xc8/v3.00/avr/bin/../lib/gcc/avr/5.4.0/avr5/libgcc.a(_copy_data.o)
 .text.libgcc.div
                0x0000000000000000        0x0 /Applications/microchip/xc8/v3.00/avr/bin/../lib/gcc/avr/5.4.0/avr5/libgcc.a(_copy_data.o)
 .text.libgcc   0x0000000000000000        0x0 /Applications/microchip/xc8/v3.00/avr/bin/../lib/gcc/avr/5.4.0/avr5/libgcc.a(_copy_data.o)
 .text.libgcc.prologue
                0x0000000000000000        0x0 /Applications/microchip/xc8/v3.00/avr/bin/../lib/gcc/avr/5.4.0/avr5/libgcc.a(_copy_data.o)
 .text.libgcc.builtins
                0x0000000000000000        0x0 /Applications/microchip/xc8/v3.00/avr/bin/../lib/gcc/avr/5.4.0/avr5/libgcc.a(_copy_data.o)
 .text.libgcc.fmul
                0x0000000000000000        0x0 /Applications/microchip/xc8/v3.00/avr/bin/../lib/gcc/avr/5.4.0/avr5/libgcc.a(_copy_data.o)
 .text.libgcc.fixed
                0x0000000000000000        0x0 /Applications/microchip/xc8/v3.00/avr/bin/../lib/gcc/avr/5.4.0/avr5/libgcc.a(_copy_data.o)
 .text          0x0000000000000000        0x0 /Applications/microchip/xc8/v3.00/avr/bin/../lib/gcc/avr/5.4.0/../../../../avr/lib/avr5/libc.a(exit.o)
 .data          0x0000000000000000        0x0 /Applications/microchip/xc8/v3.00/avr/bin/../lib/gcc/avr/5.4.0/../../../../avr/lib/avr5/libc.a(exit.o)
 .bss           0x0000000000000000        0x0 /Applications/microchip/xc8/v3.00/avr/bin/../lib/gcc/avr/5.4.0/../../../../avr/lib/avr5/libc.a(exit.o)
 .stack.descriptors
                0x0000000000000000       0x73 /Applications/microchip/xc8/v3.00/avr/bin/../lib/gcc/avr/5.4.0/../../../../avr/lib/avr5/libc.a(exit.o)
 .text          0x0000000000000000        0x0 /Applications/microchip/xc8/v3.00/avr/bin/../lib/gcc/avr/5.4.0/../../../../avr/lib/avr5/libc.a(__sio_sprintf_doux.o)
 .data          0x0000000000000000        0x0 /Applications/microchip/xc8/v3.00/avr/bin/../lib/gcc/avr/5.4.0/../../../../avr/lib/avr5/libc.a(__sio_sprintf_doux.o)
 .bss           0x0000000000000000        0x0 /Applications/microchip/xc8/v3.00/avr/bin/../lib/gcc/avr/5.4.0/../../../../avr/lib/avr5/libc.a(__sio_sprintf_doux.o)
 .stack.descriptors
                0x0000000000000000       0x3c /Applications/microchip/xc8/v3.00/avr/bin/../lib/gcc/avr/5.4.0/../../../../avr/lib/avr5/libc.a(__sio_sprintf_doux.o)
 .text.__wrap_sprintf
                0x0000000000000000       0x24 /Applications/microchip/xc8/v3.00/avr/bin/../lib/gcc/avr/5.4.0/../../../../avr/lib/avr5/libc.a(__sio_sprintf_doux.o)
 .text.__sio_sprintf_doux
                0x0000000000000000       0x1a /Applications/microchip/xc8/v3.00/avr/bin/../lib/gcc/avr/5.4.0/../../../../avr/lib/avr5/libc.a(__sio_sprintf_doux.o)
 .comment       0x0000000000000000       0x2d /Applications/microchip/xc8/v3.00/avr/bin/../lib/gcc/avr/5.4.0/../../../../avr/lib/avr5/libc.a(__sio_sprintf_doux.o)
 .stack.descriptors.hdr
                0x0000000000000000        0xe /Applications/microchip/xc8/v3.00/avr/bin/../lib/gcc/avr/5.4.0/../../../../avr/lib/avr5/libc.a(__sio_sprintf_doux.o)
 .note.GNU-stack
                0x0000000000000000        0x0 /Applications/microchip/xc8/v3.00/avr/bin/../lib/gcc/avr/5.4.0/../../../../avr/lib/avr5/libc.a(__sio_sprintf_doux.o)
 .text          0x0000000000000000        0x0 /Applications/microchip/xc8/v3.00/avr/bin/../lib/gcc/avr/5.4.0/../../../../avr/lib/avr5/libc.a(__fmt_d.o)
 .data          0x0000000000000000        0x0 /Applications/microchip/xc8/v3.00/avr/bin/../lib/gcc/avr/5.4.0/../../../../avr/lib/avr5/libc.a(__fmt_d.o)
 .bss           0x0000000000000000        0x0 /Applications/microchip/xc8/v3.00/avr/bin/../lib/gcc/avr/5.4.0/../../../../avr/lib/avr5/libc.a(__fmt_d.o)
 .stack.descriptors
                0x0000000000000000       0x15 /Applications/microchip/xc8/v3.00/avr/bin/../lib/gcc/avr/5.4.0/../../../../avr/lib/avr5/libc.a(__fmt_d.o)
 .text.__fmt_d  0x0000000000000000       0xe4 /Applications/microchip/xc8/v3.00/avr/bin/../lib/gcc/avr/5.4.0/../../../../avr/lib/avr5/libc.a(__fmt_d.o)
 .comment       0x0000000000000000       0x2d /Applications/microchip/xc8/v3.00/avr/bin/../lib/gcc/avr/5.4.0/../../../../avr/lib/avr5/libc.a(__fmt_d.o)
 .stack.descriptors.hdr
                0x0000000000000000        0xe /Applications/microchip/xc8/v3.00/avr/bin/../lib/gcc/avr/5.4.0/../../../../avr/lib/avr5/libc.a(__fmt_d.o)
 .note.GNU-stack
                0x0000000000000000        0x0 /Applications/microchip/xc8/v3.00/avr/bin/../lib/gcc/avr/5.4.0/../../../../avr/lib/avr5/libc.a(__fmt_d.o)
 .text          0x0000000000000000        0x0 /Applications/microchip/xc8/v3.00/avr/bin/../lib/gcc/avr/5.4.0/../../../../avr/lib/avr5/libc.a(__fmt_o.o)
 .data          0x0000000000000000        0x0 /Applications/microchip/xc8/v3.00/avr/bin/../lib/gcc/avr/5.4.0/../../../../avr/lib/avr5/libc.a(__fmt_o.o)
 .bss           0x0000000000000000        0x0 /Applications/microchip/xc8/v3.00/avr/bin/../lib/gcc/avr/5.4.0/../../../../avr/lib/avr5/libc.a(__fmt_o.o)
 .stack.descriptors
                0x0000000000000000       0x15 /Applications/microchip/xc8/v3.00/avr/bin/../lib/gcc/avr/5.4.0/../../../../avr/lib/avr5/libc.a(__fmt_o.o)
 .text.__fmt_o  0x0000000000000000       0xb2 /Applications/microchip/xc8/v3.00/avr/bin/../lib/gcc/avr/5.4.0/../../../../avr/lib/avr5/libc.a(__fmt_o.o)
 .comment       0x0000000000000000       0x2d /Applications/microchip/xc8/v3.00/avr/bin/../lib/gcc/avr/5.4.0/../../../../avr/lib/avr5/libc.a(__fmt_o.o)
 .stack.descriptors.hdr
                0x0000000000000000        0xe /Applications/microchip/xc8/v3.00/avr/bin/../lib/gcc/avr/5.4.0/../../../../avr/lib/avr5/libc.a(__fmt_o.o)
 .note.GNU-stack
                0x0000000000000000        0x0 /Applications/microchip/xc8/v3.00/avr/bin/../lib/gcc/avr/5.4.0/../../../../avr/lib/avr5/libc.a(__fmt_o.o)
 .text          0x0000000000000000        0x0 /Applications/microchip/xc8/v3.00/avr/bin/../lib/gcc/avr/5.4.0/../../../../avr/lib/avr5/libc.a(__fmt_s.o)
 .data          0x0000000000000000        0x0 /Applications/microchip/xc8/v3.00/avr/bin/../lib/gcc/avr/5.4.0/../../../../avr/lib/avr5/libc.a(__fmt_s.o)
 .bss           0x0000000000000000        0x0 /Applications/microchip/xc8/v3.00/avr/bin/../lib/gcc/avr/5.4.0/../../../../avr/lib/avr5/libc.a(__fmt_s.o)
 .stack.descriptors
                0x0000000000000000       0x15 /Applications/microchip/xc8/v3.00/avr/bin/../lib/gcc/avr/5.4.0/../../../../avr/lib/avr5/libc.a(__fmt_s.o)
 .text.__fmt_s  0x0000000000000000       0x54 /Applications/microchip/xc8/v3.00/avr/bin/../lib/gcc/avr/5.4.0/../../../../avr/lib/avr5/libc.a(__fmt_s.o)
 .rodata.nuls.2781
                0x0000000000000000        0x7 /Applications/microchip/xc8/v3.00/avr/bin/../lib/gcc/avr/5.4.0/../../../../avr/lib/avr5/libc.a(__fmt_s.o)
 .comment       0x0000000000000000       0x2d /Applications/microchip/xc8/v3.00/avr/bin/../lib/gcc/avr/5.4.0/../../../../avr/lib/avr5/libc.a(__fmt_s.o)
 .stack.descriptors.hdr
                0x0000000000000000        0xe /Applications/microchip/xc8/v3.00/avr/bin/../lib/gcc/avr/5.4.0/../../../../avr/lib/avr5/libc.a(__fmt_s.o)
 .note.GNU-stack
                0x0000000000000000        0x0 /Applications/microchip/xc8/v3.00/avr/bin/../lib/gcc/avr/5.4.0/../../../../avr/lib/avr5/libc.a(__fmt_s.o)
 .text          0x0000000000000000        0x0 /Applications/microchip/xc8/v3.00/avr/bin/../lib/gcc/avr/5.4.0/../../../../avr/lib/avr5/libc.a(__fmt_u.o)
 .data          0x0000000000000000        0x0 /Applications/microchip/xc8/v3.00/avr/bin/../lib/gcc/avr/5.4.0/../../../../avr/lib/avr5/libc.a(__fmt_u.o)
 .bss           0x0000000000000000        0x0 /Applications/microchip/xc8/v3.00/avr/bin/../lib/gcc/avr/5.4.0/../../../../avr/lib/avr5/libc.a(__fmt_u.o)
 .stack.descriptors
                0x0000000000000000       0x2a /Applications/microchip/xc8/v3.00/avr/bin/../lib/gcc/avr/5.4.0/../../../../avr/lib/avr5/libc.a(__fmt_u.o)
 .text.__cvt_u  0x0000000000000000       0xca /Applications/microchip/xc8/v3.00/avr/bin/../lib/gcc/avr/5.4.0/../../../../avr/lib/avr5/libc.a(__fmt_u.o)
 .text.__fmt_u  0x0000000000000000       0x8e /Applications/microchip/xc8/v3.00/avr/bin/../lib/gcc/avr/5.4.0/../../../../avr/lib/avr5/libc.a(__fmt_u.o)
 .comment       0x0000000000000000       0x2d /Applications/microchip/xc8/v3.00/avr/bin/../lib/gcc/avr/5.4.0/../../../../avr/lib/avr5/libc.a(__fmt_u.o)
 .stack.descriptors.hdr
                0x0000000000000000        0xe /Applications/microchip/xc8/v3.00/avr/bin/../lib/gcc/avr/5.4.0/../../../../avr/lib/avr5/libc.a(__fmt_u.o)
 .note.GNU-stack
                0x0000000000000000        0x0 /Applications/microchip/xc8/v3.00/avr/bin/../lib/gcc/avr/5.4.0/../../../../avr/lib/avr5/libc.a(__fmt_u.o)
 .text          0x0000000000000000        0x0 /Applications/microchip/xc8/v3.00/avr/bin/../lib/gcc/avr/5.4.0/../../../../avr/lib/avr5/libc.a(__fmt_x.o)
 .data          0x0000000000000000        0x0 /Applications/microchip/xc8/v3.00/avr/bin/../lib/gcc/avr/5.4.0/../../../../avr/lib/avr5/libc.a(__fmt_x.o)
 .bss           0x0000000000000000        0x0 /Applications/microchip/xc8/v3.00/avr/bin/../lib/gcc/avr/5.4.0/../../../../avr/lib/avr5/libc.a(__fmt_x.o)
 .stack.descriptors
                0x0000000000000000       0x15 /Applications/microchip/xc8/v3.00/avr/bin/../lib/gcc/avr/5.4.0/../../../../avr/lib/avr5/libc.a(__fmt_x.o)
 .text.__fmt_x  0x0000000000000000      0x1dc /Applications/microchip/xc8/v3.00/avr/bin/../lib/gcc/avr/5.4.0/../../../../avr/lib/avr5/libc.a(__fmt_x.o)
 .comment       0x0000000000000000       0x2d /Applications/microchip/xc8/v3.00/avr/bin/../lib/gcc/avr/5.4.0/../../../../avr/lib/avr5/libc.a(__fmt_x.o)
 .stack.descriptors.hdr
                0x0000000000000000        0xe /Applications/microchip/xc8/v3.00/avr/bin/../lib/gcc/avr/5.4.0/../../../../avr/lib/avr5/libc.a(__fmt_x.o)
 .note.GNU-stack
                0x0000000000000000        0x0 /Applications/microchip/xc8/v3.00/avr/bin/../lib/gcc/avr/5.4.0/../../../../avr/lib/avr5/libc.a(__fmt_x.o)
 .text          0x0000000000000000        0x0 /Applications/microchip/xc8/v3.00/avr/bin/../lib/gcc/avr/5.4.0/../../../../avr/lib/avr5/libc.a(__pop_int.o)
 .data          0x0000000000000000        0x0 /Applications/microchip/xc8/v3.00/avr/bin/../lib/gcc/avr/5.4.0/../../../../avr/lib/avr5/libc.a(__pop_int.o)
 .bss           0x0000000000000000        0x0 /Applications/microchip/xc8/v3.00/avr/bin/../lib/gcc/avr/5.4.0/../../../../avr/lib/avr5/libc.a(__pop_int.o)
 .stack.descriptors
                0x0000000000000000       0x17 /Applications/microchip/xc8/v3.00/avr/bin/../lib/gcc/avr/5.4.0/../../../../avr/lib/avr5/libc.a(__pop_int.o)
 .text.__pop_int
                0x0000000000000000       0xd0 /Applications/microchip/xc8/v3.00/avr/bin/../lib/gcc/avr/5.4.0/../../../../avr/lib/avr5/libc.a(__pop_int.o)
 .comment       0x0000000000000000       0x2d /Applications/microchip/xc8/v3.00/avr/bin/../lib/gcc/avr/5.4.0/../../../../avr/lib/avr5/libc.a(__pop_int.o)
 .stack.descriptors.hdr
                0x0000000000000000        0xe /Applications/microchip/xc8/v3.00/avr/bin/../lib/gcc/avr/5.4.0/../../../../avr/lib/avr5/libc.a(__pop_int.o)
 .note.GNU-stack
                0x0000000000000000        0x0 /Applications/microchip/xc8/v3.00/avr/bin/../lib/gcc/avr/5.4.0/../../../../avr/lib/avr5/libc.a(__pop_int.o)
 .text          0x0000000000000000        0x0 /Applications/microchip/xc8/v3.00/avr/bin/../lib/gcc/avr/5.4.0/../../../../avr/lib/avr5/libc.a(__printf_core.o)
 .data          0x0000000000000000        0x0 /Applications/microchip/xc8/v3.00/avr/bin/../lib/gcc/avr/5.4.0/../../../../avr/lib/avr5/libc.a(__printf_core.o)
 .bss           0x0000000000000000        0x0 /Applications/microchip/xc8/v3.00/avr/bin/../lib/gcc/avr/5.4.0/../../../../avr/lib/avr5/libc.a(__printf_core.o)
 .stack.descriptors
                0x0000000000000000       0x91 /Applications/microchip/xc8/v3.00/avr/bin/../lib/gcc/avr/5.4.0/../../../../avr/lib/avr5/libc.a(__printf_core.o)
 .text.read_prec_or_width
                0x0000000000000000       0x5c /Applications/microchip/xc8/v3.00/avr/bin/../lib/gcc/avr/5.4.0/../../../../avr/lib/avr5/libc.a(__printf_core.o)
 .text.__out    0x0000000000000000       0x3a /Applications/microchip/xc8/v3.00/avr/bin/../lib/gcc/avr/5.4.0/../../../../avr/lib/avr5/libc.a(__printf_core.o)
 .text.__pad    0x0000000000000000       0x72 /Applications/microchip/xc8/v3.00/avr/bin/../lib/gcc/avr/5.4.0/../../../../avr/lib/avr5/libc.a(__printf_core.o)
 .text.__fmt_state
                0x0000000000000000       0x40 /Applications/microchip/xc8/v3.00/avr/bin/../lib/gcc/avr/5.4.0/../../../../avr/lib/avr5/libc.a(__printf_core.o)
 .text.vfpfcnvrt
                0x0000000000000000      0x3fc /Applications/microchip/xc8/v3.00/avr/bin/../lib/gcc/avr/5.4.0/../../../../avr/lib/avr5/libc.a(__printf_core.o)
 .text.__printf_core
                0x0000000000000000       0x78 /Applications/microchip/xc8/v3.00/avr/bin/../lib/gcc/avr/5.4.0/../../../../avr/lib/avr5/libc.a(__printf_core.o)
 .rodata.nilstr.2962
                0x0000000000000000        0x6 /Applications/microchip/xc8/v3.00/avr/bin/../lib/gcc/avr/5.4.0/../../../../avr/lib/avr5/libc.a(__printf_core.o)
 .rodata.state_table
                0x0000000000000000       0x16 /Applications/microchip/xc8/v3.00/avr/bin/../lib/gcc/avr/5.4.0/../../../../avr/lib/avr5/libc.a(__printf_core.o)
 .comment       0x0000000000000000       0x2d /Applications/microchip/xc8/v3.00/avr/bin/../lib/gcc/avr/5.4.0/../../../../avr/lib/avr5/libc.a(__printf_core.o)
 .stack.descriptors.hdr
                0x0000000000000000        0xe /Applications/microchip/xc8/v3.00/avr/bin/../lib/gcc/avr/5.4.0/../../../../avr/lib/avr5/libc.a(__printf_core.o)
 .note.GNU-stack
                0x0000000000000000        0x0 /Applications/microchip/xc8/v3.00/avr/bin/../lib/gcc/avr/5.4.0/../../../../avr/lib/avr5/libc.a(__printf_core.o)
 .text          0x0000000000000000        0x0 /Applications/microchip/xc8/v3.00/avr/bin/../lib/gcc/avr/5.4.0/../../../../avr/lib/avr5/libc.a(fputc.o)
 .data          0x0000000000000000        0x0 /Applications/microchip/xc8/v3.00/avr/bin/../lib/gcc/avr/5.4.0/../../../../avr/lib/avr5/libc.a(fputc.o)
 .bss           0x0000000000000000        0x0 /Applications/microchip/xc8/v3.00/avr/bin/../lib/gcc/avr/5.4.0/../../../../avr/lib/avr5/libc.a(fputc.o)
 .stack.descriptors
                0x0000000000000000       0x13 /Applications/microchip/xc8/v3.00/avr/bin/../lib/gcc/avr/5.4.0/../../../../avr/lib/avr5/libc.a(fputc.o)
 .text.fputc    0x0000000000000000       0x98 /Applications/microchip/xc8/v3.00/avr/bin/../lib/gcc/avr/5.4.0/../../../../avr/lib/avr5/libc.a(fputc.o)
 .comment       0x0000000000000000       0x2d /Applications/microchip/xc8/v3.00/avr/bin/../lib/gcc/avr/5.4.0/../../../../avr/lib/avr5/libc.a(fputc.o)
 .stack.descriptors.hdr
                0x0000000000000000        0xe /Applications/microchip/xc8/v3.00/avr/bin/../lib/gcc/avr/5.4.0/../../../../avr/lib/avr5/libc.a(fputc.o)
 .note.GNU-stack
                0x0000000000000000        0x0 /Applications/microchip/xc8/v3.00/avr/bin/../lib/gcc/avr/5.4.0/../../../../avr/lib/avr5/libc.a(fputc.o)
 .text          0x0000000000000000        0x0 /Applications/microchip/xc8/v3.00/avr/bin/../lib/gcc/avr/5.4.0/../../../../avr/lib/avr5/libc.a(strlen.o)
 .data          0x0000000000000000        0x0 /Applications/microchip/xc8/v3.00/avr/bin/../lib/gcc/avr/5.4.0/../../../../avr/lib/avr5/libc.a(strlen.o)
 .bss           0x0000000000000000        0x0 /Applications/microchip/xc8/v3.00/avr/bin/../lib/gcc/avr/5.4.0/../../../../avr/lib/avr5/libc.a(strlen.o)
 .stack.descriptors
                0x0000000000000000       0x14 /Applications/microchip/xc8/v3.00/avr/bin/../lib/gcc/avr/5.4.0/../../../../avr/lib/avr5/libc.a(strlen.o)
 .text.strlen   0x0000000000000000       0x1c /Applications/microchip/xc8/v3.00/avr/bin/../lib/gcc/avr/5.4.0/../../../../avr/lib/avr5/libc.a(strlen.o)
 .comment       0x0000000000000000       0x2d /Applications/microchip/xc8/v3.00/avr/bin/../lib/gcc/avr/5.4.0/../../../../avr/lib/avr5/libc.a(strlen.o)
 .stack.descriptors.hdr
                0x0000000000000000        0xe /Applications/microchip/xc8/v3.00/avr/bin/../lib/gcc/avr/5.4.0/../../../../avr/lib/avr5/libc.a(strlen.o)
 .note.GNU-stack
                0x0000000000000000        0x0 /Applications/microchip/xc8/v3.00/avr/bin/../lib/gcc/avr/5.4.0/../../../../avr/lib/avr5/libc.a(strlen.o)
 .text          0x0000000000000000        0x0 /Applications/microchip/xc8/v3.00/avr/bin/../lib/gcc/avr/5.4.0/../../../../avr/lib/avr5/libc.a(tolower.o)
 .data          0x0000000000000000        0x0 /Applications/microchip/xc8/v3.00/avr/bin/../lib/gcc/avr/5.4.0/../../../../avr/lib/avr5/libc.a(tolower.o)
 .bss           0x0000000000000000        0x0 /Applications/microchip/xc8/v3.00/avr/bin/../lib/gcc/avr/5.4.0/../../../../avr/lib/avr5/libc.a(tolower.o)
 .stack.descriptors
                0x0000000000000000       0x2e /Applications/microchip/xc8/v3.00/avr/bin/../lib/gcc/avr/5.4.0/../../../../avr/lib/avr5/libc.a(tolower.o)
 .text.tolower  0x0000000000000000       0x10 /Applications/microchip/xc8/v3.00/avr/bin/../lib/gcc/avr/5.4.0/../../../../avr/lib/avr5/libc.a(tolower.o)
 .text.__tolower_l
                0x0000000000000000        0x6 /Applications/microchip/xc8/v3.00/avr/bin/../lib/gcc/avr/5.4.0/../../../../avr/lib/avr5/libc.a(tolower.o)
 .comment       0x0000000000000000       0x2d /Applications/microchip/xc8/v3.00/avr/bin/../lib/gcc/avr/5.4.0/../../../../avr/lib/avr5/libc.a(tolower.o)
 .stack.descriptors.hdr
                0x0000000000000000        0xe /Applications/microchip/xc8/v3.00/avr/bin/../lib/gcc/avr/5.4.0/../../../../avr/lib/avr5/libc.a(tolower.o)
 .note.GNU-stack
                0x0000000000000000        0x0 /Applications/microchip/xc8/v3.00/avr/bin/../lib/gcc/avr/5.4.0/../../../../avr/lib/avr5/libc.a(tolower.o)
 .text          0x0000000000000000        0x0 /Applications/microchip/xc8/v3.00/avr/bin/../lib/gcc/avr/5.4.0/../../../../avr/lib/avr5/libc.a(toupper.o)
 .data          0x0000000000000000        0x0 /Applications/microchip/xc8/v3.00/avr/bin/../lib/gcc/avr/5.4.0/../../../../avr/lib/avr5/libc.a(toupper.o)
 .bss           0x0000000000000000        0x0 /Applications/microchip/xc8/v3.00/avr/bin/../lib/gcc/avr/5.4.0/../../../../avr/lib/avr5/libc.a(toupper.o)
 .stack.descriptors
                0x0000000000000000       0x2e /Applications/microchip/xc8/v3.00/avr/bin/../lib/gcc/avr/5.4.0/../../../../avr/lib/avr5/libc.a(toupper.o)
 .text.toupper  0x0000000000000000       0x12 /Applications/microchip/xc8/v3.00/avr/bin/../lib/gcc/avr/5.4.0/../../../../avr/lib/avr5/libc.a(toupper.o)
 .text.__toupper_l
                0x0000000000000000        0x6 /Applications/microchip/xc8/v3.00/avr/bin/../lib/gcc/avr/5.4.0/../../../../avr/lib/avr5/libc.a(toupper.o)
 .comment       0x0000000000000000       0x2d /Applications/microchip/xc8/v3.00/avr/bin/../lib/gcc/avr/5.4.0/../../../../avr/lib/avr5/libc.a(toupper.o)
 .stack.descriptors.hdr
                0x0000000000000000        0xe /Applications/microchip/xc8/v3.00/avr/bin/../lib/gcc/avr/5.4.0/../../../../avr/lib/avr5/libc.a(toupper.o)
 .note.GNU-stack
                0x0000000000000000        0x0 /Applications/microchip/xc8/v3.00/avr/bin/../lib/gcc/avr/5.4.0/../../../../avr/lib/avr5/libc.a(toupper.o)
 .text          0x0000000000000000        0x0 /Applications/microchip/xc8/v3.00/avr/bin/../lib/gcc/avr/5.4.0/../../../../avr/lib/avr5/libc.a(errno.o)
 .data          0x0000000000000000        0x0 /Applications/microchip/xc8/v3.00/avr/bin/../lib/gcc/avr/5.4.0/../../../../avr/lib/avr5/libc.a(errno.o)
 .bss           0x0000000000000000        0x0 /Applications/microchip/xc8/v3.00/avr/bin/../lib/gcc/avr/5.4.0/../../../../avr/lib/avr5/libc.a(errno.o)
 .comment       0x0000000000000000       0x2d /Applications/microchip/xc8/v3.00/avr/bin/../lib/gcc/avr/5.4.0/../../../../avr/lib/avr5/libc.a(errno.o)
 .stack.descriptors.hdr
                0x0000000000000000        0xe /Applications/microchip/xc8/v3.00/avr/bin/../lib/gcc/avr/5.4.0/../../../../avr/lib/avr5/libc.a(errno.o)
 .note.GNU-stack
                0x0000000000000000        0x0 /Applications/microchip/xc8/v3.00/avr/bin/../lib/gcc/avr/5.4.0/../../../../avr/lib/avr5/libc.a(errno.o)
 COMMON         0x0000000000000000        0x2 /Applications/microchip/xc8/v3.00/avr/bin/../lib/gcc/avr/5.4.0/../../../../avr/lib/avr5/libc.a(errno.o)
 .text          0x0000000000000000        0x0 /Applications/microchip/xc8/v3.00/avr/bin/../lib/gcc/avr/5.4.0/../../../../avr/lib/avr5/libc.a(_Exit.o)
 .data          0x0000000000000000        0x0 /Applications/microchip/xc8/v3.00/avr/bin/../lib/gcc/avr/5.4.0/../../../../avr/lib/avr5/libc.a(_Exit.o)
 .bss           0x0000000000000000        0x0 /Applications/microchip/xc8/v3.00/avr/bin/../lib/gcc/avr/5.4.0/../../../../avr/lib/avr5/libc.a(_Exit.o)
 .stack.descriptors
                0x0000000000000000       0x13 /Applications/microchip/xc8/v3.00/avr/bin/../lib/gcc/avr/5.4.0/../../../../avr/lib/avr5/libc.a(_Exit.o)
 .text          0x0000000000000000        0x0 /Applications/microchip/xc8/v3.00/avr/bin/../lib/gcc/avr/5.4.0/../../../../avr/lib/avr5/libc.a(__int_vsprintf.o)
 .data          0x0000000000000000        0x0 /Applications/microchip/xc8/v3.00/avr/bin/../lib/gcc/avr/5.4.0/../../../../avr/lib/avr5/libc.a(__int_vsprintf.o)
 .bss           0x0000000000000000        0x0 /Applications/microchip/xc8/v3.00/avr/bin/../lib/gcc/avr/5.4.0/../../../../avr/lib/avr5/libc.a(__int_vsprintf.o)
 .stack.descriptors
                0x0000000000000000       0x18 /Applications/microchip/xc8/v3.00/avr/bin/../lib/gcc/avr/5.4.0/../../../../avr/lib/avr5/libc.a(__int_vsprintf.o)
 .text.__vsprintf
                0x0000000000000000        0xe /Applications/microchip/xc8/v3.00/avr/bin/../lib/gcc/avr/5.4.0/../../../../avr/lib/avr5/libc.a(__int_vsprintf.o)
 .comment       0x0000000000000000       0x2d /Applications/microchip/xc8/v3.00/avr/bin/../lib/gcc/avr/5.4.0/../../../../avr/lib/avr5/libc.a(__int_vsprintf.o)
 .stack.descriptors.hdr
                0x0000000000000000        0xe /Applications/microchip/xc8/v3.00/avr/bin/../lib/gcc/avr/5.4.0/../../../../avr/lib/avr5/libc.a(__int_vsprintf.o)
 .note.GNU-stack
                0x0000000000000000        0x0 /Applications/microchip/xc8/v3.00/avr/bin/../lib/gcc/avr/5.4.0/../../../../avr/lib/avr5/libc.a(__int_vsprintf.o)
 .text          0x0000000000000000        0x0 /Applications/microchip/xc8/v3.00/avr/bin/../lib/gcc/avr/5.4.0/../../../../avr/lib/avr5/libc.a(__int_vsnprintf.o)
 .data          0x0000000000000000        0x0 /Applications/microchip/xc8/v3.00/avr/bin/../lib/gcc/avr/5.4.0/../../../../avr/lib/avr5/libc.a(__int_vsnprintf.o)
 .bss           0x0000000000000000        0x0 /Applications/microchip/xc8/v3.00/avr/bin/../lib/gcc/avr/5.4.0/../../../../avr/lib/avr5/libc.a(__int_vsnprintf.o)
 .stack.descriptors
                0x0000000000000000       0x19 /Applications/microchip/xc8/v3.00/avr/bin/../lib/gcc/avr/5.4.0/../../../../avr/lib/avr5/libc.a(__int_vsnprintf.o)
 .text.__vsnprintf
                0x0000000000000000       0x74 /Applications/microchip/xc8/v3.00/avr/bin/../lib/gcc/avr/5.4.0/../../../../avr/lib/avr5/libc.a(__int_vsnprintf.o)
 .comment       0x0000000000000000       0x2d /Applications/microchip/xc8/v3.00/avr/bin/../lib/gcc/avr/5.4.0/../../../../avr/lib/avr5/libc.a(__int_vsnprintf.o)
 .stack.descriptors.hdr
                0x0000000000000000        0xe /Applications/microchip/xc8/v3.00/avr/bin/../lib/gcc/avr/5.4.0/../../../../avr/lib/avr5/libc.a(__int_vsnprintf.o)
 .note.GNU-stack
                0x0000000000000000        0x0 /Applications/microchip/xc8/v3.00/avr/bin/../lib/gcc/avr/5.4.0/../../../../avr/lib/avr5/libc.a(__int_vsnprintf.o)
 .text          0x0000000000000000        0x0 /Applications/microchip/xc8/v3.00/avr/bin/../lib/gcc/avr/5.4.0/../../../../avr/lib/avr5/libc.a(__int_vfprintf.o)
 .data          0x0000000000000000        0x0 /Applications/microchip/xc8/v3.00/avr/bin/../lib/gcc/avr/5.4.0/../../../../avr/lib/avr5/libc.a(__int_vfprintf.o)
 .bss           0x0000000000000000        0x0 /Applications/microchip/xc8/v3.00/avr/bin/../lib/gcc/avr/5.4.0/../../../../avr/lib/avr5/libc.a(__int_vfprintf.o)
 .stack.descriptors
                0x0000000000000000       0x18 /Applications/microchip/xc8/v3.00/avr/bin/../lib/gcc/avr/5.4.0/../../../../avr/lib/avr5/libc.a(__int_vfprintf.o)
 .text.__vfprintf
                0x0000000000000000       0x30 /Applications/microchip/xc8/v3.00/avr/bin/../lib/gcc/avr/5.4.0/../../../../avr/lib/avr5/libc.a(__int_vfprintf.o)
 .comment       0x0000000000000000       0x2d /Applications/microchip/xc8/v3.00/avr/bin/../lib/gcc/avr/5.4.0/../../../../avr/lib/avr5/libc.a(__int_vfprintf.o)
 .stack.descriptors.hdr
                0x0000000000000000        0xe /Applications/microchip/xc8/v3.00/avr/bin/../lib/gcc/avr/5.4.0/../../../../avr/lib/avr5/libc.a(__int_vfprintf.o)
 .note.GNU-stack
                0x0000000000000000        0x0 /Applications/microchip/xc8/v3.00/avr/bin/../lib/gcc/avr/5.4.0/../../../../avr/lib/avr5/libc.a(__int_vfprintf.o)
 .text          0x0000000000000000        0x0 /Applications/microchip/xc8/v3.00/avr/bin/../lib/gcc/avr/5.4.0/avr5/libgcc.a(_udivmodsi4.o)
 .data          0x0000000000000000        0x0 /Applications/microchip/xc8/v3.00/avr/bin/../lib/gcc/avr/5.4.0/avr5/libgcc.a(_udivmodsi4.o)
 .bss           0x0000000000000000        0x0 /Applications/microchip/xc8/v3.00/avr/bin/../lib/gcc/avr/5.4.0/avr5/libgcc.a(_udivmodsi4.o)
 .text.libgcc.mul
                0x0000000000000000        0x0 /Applications/microchip/xc8/v3.00/avr/bin/../lib/gcc/avr/5.4.0/avr5/libgcc.a(_udivmodsi4.o)
 .text.libgcc.div
                0x0000000000000000       0x44 /Applications/microchip/xc8/v3.00/avr/bin/../lib/gcc/avr/5.4.0/avr5/libgcc.a(_udivmodsi4.o)
 .stack.descriptors.hdr
                0x0000000000000000        0xe /Applications/microchip/xc8/v3.00/avr/bin/../lib/gcc/avr/5.4.0/avr5/libgcc.a(_udivmodsi4.o)
 .stack.descriptors
                0x0000000000000000       0x1a /Applications/microchip/xc8/v3.00/avr/bin/../lib/gcc/avr/5.4.0/avr5/libgcc.a(_udivmodsi4.o)
 .text.libgcc   0x0000000000000000        0x0 /Applications/microchip/xc8/v3.00/avr/bin/../lib/gcc/avr/5.4.0/avr5/libgcc.a(_udivmodsi4.o)
 .text.libgcc.prologue
                0x0000000000000000        0x0 /Applications/microchip/xc8/v3.00/avr/bin/../lib/gcc/avr/5.4.0/avr5/libgcc.a(_udivmodsi4.o)
 .text.libgcc.builtins
                0x0000000000000000        0x0 /Applications/microchip/xc8/v3.00/avr/bin/../lib/gcc/avr/5.4.0/avr5/libgcc.a(_udivmodsi4.o)
 .text.libgcc.fmul
                0x0000000000000000        0x0 /Applications/microchip/xc8/v3.00/avr/bin/../lib/gcc/avr/5.4.0/avr5/libgcc.a(_udivmodsi4.o)
 .text.libgcc.fixed
                0x0000000000000000        0x0 /Applications/microchip/xc8/v3.00/avr/bin/../lib/gcc/avr/5.4.0/avr5/libgcc.a(_udivmodsi4.o)
 .text          0x0000000000000000        0x0 /Applications/microchip/xc8/v3.00/avr/bin/../lib/gcc/avr/5.4.0/avr5/libgcc.a(_exit.o)
 .data          0x0000000000000000        0x0 /Applications/microchip/xc8/v3.00/avr/bin/../lib/gcc/avr/5.4.0/avr5/libgcc.a(_exit.o)
 .bss           0x0000000000000000        0x0 /Applications/microchip/xc8/v3.00/avr/bin/../lib/gcc/avr/5.4.0/avr5/libgcc.a(_exit.o)
 .text.libgcc.mul
                0x0000000000000000        0x0 /Applications/microchip/xc8/v3.00/avr/bin/../lib/gcc/avr/5.4.0/avr5/libgcc.a(_exit.o)
 .text.libgcc.div
                0x0000000000000000        0x0 /Applications/microchip/xc8/v3.00/avr/bin/../lib/gcc/avr/5.4.0/avr5/libgcc.a(_exit.o)
 .text.libgcc   0x0000000000000000        0x0 /Applications/microchip/xc8/v3.00/avr/bin/../lib/gcc/avr/5.4.0/avr5/libgcc.a(_exit.o)
 .text.libgcc.prologue
                0x0000000000000000        0x0 /Applications/microchip/xc8/v3.00/avr/bin/../lib/gcc/avr/5.4.0/avr5/libgcc.a(_exit.o)
 .stack.descriptors
                0x0000000000000000       0x13 /Applications/microchip/xc8/v3.00/avr/bin/../lib/gcc/avr/5.4.0/avr5/libgcc.a(_exit.o)
 .text.libgcc.builtins
                0x0000000000000000        0x0 /Applications/microchip/xc8/v3.00/avr/bin/../lib/gcc/avr/5.4.0/avr5/libgcc.a(_exit.o)
 .text.libgcc.fmul
                0x0000000000000000        0x0 /Applications/microchip/xc8/v3.00/avr/bin/../lib/gcc/avr/5.4.0/avr5/libgcc.a(_exit.o)
 .text.libgcc.fixed
                0x0000000000000000        0x0 /Applications/microchip/xc8/v3.00/avr/bin/../lib/gcc/avr/5.4.0/avr5/libgcc.a(_exit.o)
 .text          0x0000000000000000        0x0 /Applications/microchip/xc8/v3.00/avr/bin/../lib/gcc/avr/5.4.0/avr5/libgcc.a(_prologue.o)
 .data          0x0000000000000000        0x0 /Applications/microchip/xc8/v3.00/avr/bin/../lib/gcc/avr/5.4.0/avr5/libgcc.a(_prologue.o)
 .bss           0x0000000000000000        0x0 /Applications/microchip/xc8/v3.00/avr/bin/../lib/gcc/avr/5.4.0/avr5/libgcc.a(_prologue.o)
 .text.libgcc.mul
                0x0000000000000000        0x0 /Applications/microchip/xc8/v3.00/avr/bin/../lib/gcc/avr/5.4.0/avr5/libgcc.a(_prologue.o)
 .text.libgcc.div
                0x0000000000000000        0x0 /Applications/microchip/xc8/v3.00/avr/bin/../lib/gcc/avr/5.4.0/avr5/libgcc.a(_prologue.o)
 .text.libgcc   0x0000000000000000        0x0 /Applications/microchip/xc8/v3.00/avr/bin/../lib/gcc/avr/5.4.0/avr5/libgcc.a(_prologue.o)
 .text.libgcc.prologue
                0x0000000000000000       0x38 /Applications/microchip/xc8/v3.00/avr/bin/../lib/gcc/avr/5.4.0/avr5/libgcc.a(_prologue.o)
 .text.libgcc.builtins
                0x0000000000000000        0x0 /Applications/microchip/xc8/v3.00/avr/bin/../lib/gcc/avr/5.4.0/avr5/libgcc.a(_prologue.o)
 .text.libgcc.fmul
                0x0000000000000000        0x0 /Applications/microchip/xc8/v3.00/avr/bin/../lib/gcc/avr/5.4.0/avr5/libgcc.a(_prologue.o)
 .text.libgcc.fixed
                0x0000000000000000        0x0 /Applications/microchip/xc8/v3.00/avr/bin/../lib/gcc/avr/5.4.0/avr5/libgcc.a(_prologue.o)
 .text          0x0000000000000000        0x0 /Applications/microchip/xc8/v3.00/avr/bin/../lib/gcc/avr/5.4.0/avr5/libgcc.a(_epilogue.o)
 .data          0x0000000000000000        0x0 /Applications/microchip/xc8/v3.00/avr/bin/../lib/gcc/avr/5.4.0/avr5/libgcc.a(_epilogue.o)
 .bss           0x0000000000000000        0x0 /Applications/microchip/xc8/v3.00/avr/bin/../lib/gcc/avr/5.4.0/avr5/libgcc.a(_epilogue.o)
 .text.libgcc.mul
                0x0000000000000000        0x0 /Applications/microchip/xc8/v3.00/avr/bin/../lib/gcc/avr/5.4.0/avr5/libgcc.a(_epilogue.o)
 .text.libgcc.div
                0x0000000000000000        0x0 /Applications/microchip/xc8/v3.00/avr/bin/../lib/gcc/avr/5.4.0/avr5/libgcc.a(_epilogue.o)
 .text.libgcc   0x0000000000000000        0x0 /Applications/microchip/xc8/v3.00/avr/bin/../lib/gcc/avr/5.4.0/avr5/libgcc.a(_epilogue.o)
 .text.libgcc.prologue
                0x0000000000000000       0x36 /Applications/microchip/xc8/v3.00/avr/bin/../lib/gcc/avr/5.4.0/avr5/libgcc.a(_epilogue.o)
 .text.libgcc.builtins
                0x0000000000000000        0x0 /Applications/microchip/xc8/v3.00/avr/bin/../lib/gcc/avr/5.4.0/avr5/libgcc.a(_epilogue.o)
 .text.libgcc.fmul
                0x0000000000000000        0x0 /Applications/microchip/xc8/v3.00/avr/bin/../lib/gcc/avr/5.4.0/avr5/libgcc.a(_epilogue.o)
 .text.libgcc.fixed
                0x0000000000000000        0x0 /Applications/microchip/xc8/v3.00/avr/bin/../lib/gcc/avr/5.4.0/avr5/libgcc.a(_epilogue.o)

Memory Configuration

Name             Origin             Length             Attributes
text             0x0000000000000000 0x0000000000008000 xr
data             0x0000000000800060 0x0000000000000800 rw !x
eeprom           0x0000000000810000 0x0000000000000400 rw !x
fuse             0x0000000000820000 0x0000000000000002 rw !x
lock             0x0000000000830000 0x0000000000000400 rw !x
signature        0x0000000000840000 0x0000000000000400 rw !x
user_signatures  0x0000000000850000 0x0000000000000400 rw !x
bootrow          0x0000000000860000 0x0000000000000400 rw !x
*default*        0x0000000000000000 0xffffffffffffffff

Linker script and memory map

LOAD /Applications/microchip/mplabx/v6.25/packs/Microchip/ATmega_DFP/3.3.279/xc8/avr/lib/avr5/crtatmega32.o
                0x0000000000000001                __MPLAB_BUILD = 0x1
LOAD build/default/production/Codes/ECUAL/7SEG/app1.o
LOAD build/default/production/Codes/ECUAL/BTN/app1.o
LOAD build/default/production/Codes/ECUAL/Chr_Lcd/app1.o
LOAD build/default/production/Codes/ECUAL/DC_Motor/app1.o
LOAD build/default/production/Codes/ECUAL/Keypad/app1.o
LOAD build/default/production/Codes/ECUAL/LED/app1.o
LOAD build/default/production/Codes/ECUAL/Relay/app1.o
LOAD build/default/production/Codes/MCAL/GPIO/app1.o
LOAD build/default/production/APP_Layer/main.o
LOAD build/default/production/ECUAL_Layer/7SEG/ecual_7seg.o
LOAD build/default/production/ECUAL_Layer/BTN/ecual_btn.o
LOAD build/default/production/ECUAL_Layer/Chr_Lcd/ecual_chr_lcd.o
LOAD build/default/production/ECUAL_Layer/DC_Motor/ecual_dc_motor.o
LOAD build/default/production/ECUAL_Layer/Keypad/ecual_keypad.o
LOAD build/default/production/ECUAL_Layer/LED/ecual_led.o
LOAD build/default/production/ECUAL_Layer/Relay/ecual_relay.o
LOAD build/default/production/ECUAL_Layer/ECUAL_INIT.o
LOAD build/default/production/MCAL_Layer/GPIO/hal_gpio.o
LOAD build/default/production/MCAL_Layer/device_cfg.o
LOAD build/default/production/MCAL_Layer/Interrupt/hal_ext_interrupt.o
LOAD build/default/production/MCAL_Layer/Interrupt/hal_int_interrupt.o
LOAD build/default/production/MCAL_Layer/Interrupt/hal_interrupt_mng.o
LOAD build/default/production/Codes/MCAL/Interrupt/app1.o
START GROUP
LOAD /Applications/microchip/xc8/v3.00/avr/bin/../lib/gcc/avr/5.4.0/../../../../avr/lib/avr5/libm.a
END GROUP
START GROUP
LOAD /Applications/microchip/xc8/v3.00/avr/bin/../lib/gcc/avr/5.4.0/avr5/libgcc.a
LOAD /Applications/microchip/xc8/v3.00/avr/bin/../lib/gcc/avr/5.4.0/../../../../avr/lib/avr5/libm.a
LOAD /Applications/microchip/xc8/v3.00/avr/bin/../lib/gcc/avr/5.4.0/../../../../avr/lib/avr5/libc.a
LOAD /Applications/microchip/mplabx/v6.25/packs/Microchip/ATmega_DFP/3.3.279/xc8/avr/lib/avr5/libatmega32.a
END GROUP
                0x0000000000000000                __TEXT_REGION_ORIGIN__ = DEFINED (__TEXT_REGION_ORIGIN__)?__TEXT_REGION_ORIGIN__:0x0
                [0x0000000000800060]                __DATA_REGION_ORIGIN__ = DEFINED (__DATA_REGION_ORIGIN__)?__DATA_REGION_ORIGIN__:0x800060
                [0x0000000000008000]                __TEXT_REGION_LENGTH__ = DEFINED (__TEXT_REGION_LENGTH__)?__TEXT_REGION_LENGTH__:0x20000
                [0x0000000000000800]                __DATA_REGION_LENGTH__ = DEFINED (__DATA_REGION_LENGTH__)?__DATA_REGION_LENGTH__:0xffa0
                [0x0000000000000400]                __EEPROM_REGION_LENGTH__ = DEFINED (__EEPROM_REGION_LENGTH__)?__EEPROM_REGION_LENGTH__:0x10000
                [0x0000000000000002]                __FUSE_REGION_LENGTH__ = DEFINED (__FUSE_REGION_LENGTH__)?__FUSE_REGION_LENGTH__:0x400
                0x0000000000000400                __LOCK_REGION_LENGTH__ = DEFINED (__LOCK_REGION_LENGTH__)?__LOCK_REGION_LENGTH__:0x400
                0x0000000000000400                __SIGNATURE_REGION_LENGTH__ = DEFINED (__SIGNATURE_REGION_LENGTH__)?__SIGNATURE_REGION_LENGTH__:0x400
                0x0000000000000400                __USER_SIGNATURE_REGION_LENGTH__ = DEFINED (__USER_SIGNATURE_REGION_LENGTH__)?__USER_SIGNATURE_REGION_LENGTH__:0x400
                0x0000000000000400                __BOOTROW_REGION_LENGTH__ = DEFINED (__BOOTROW_REGION_LENGTH__)?__BOOTROW_REGION_LENGTH__:0x400

.hash
 *(.hash)

.dynsym
 *(.dynsym)

.dynstr
 *(.dynstr)

.gnu.version
 *(.gnu.version)

.gnu.version_d
 *(.gnu.version_d)

.gnu.version_r
 *(.gnu.version_r)

.rel.init
 *(.rel.init)

.rela.init
 *(.rela.init)

.rel.text
 *(.rel.text)
 *(.rel.text.*)
 *(.rel.gnu.linkonce.t*)

.rela.text
 *(.rela.text)
 *(.rela.text.*)
 *(.rela.gnu.linkonce.t*)

.rel.fini
 *(.rel.fini)

.rela.fini
 *(.rela.fini)

.rel.rodata
 *(.rel.rodata)
 *(.rel.rodata.*)
 *(.rel.gnu.linkonce.r*)

.rela.rodata
 *(.rela.rodata)
 *(.rela.rodata.*)
 *(.rela.gnu.linkonce.r*)

.rel.data
 *(.rel.data)
 *(.rel.data.*)
 *(.rel.gnu.linkonce.d*)

.rela.data
 *(.rela.data)
 *(.rela.data.*)
 *(.rela.gnu.linkonce.d*)

.rel.ctors
 *(.rel.ctors)

.rela.ctors
 *(.rela.ctors)

.rel.dtors
 *(.rel.dtors)

.rela.dtors
 *(.rela.dtors)

.rel.got
 *(.rel.got)

.rela.got
 *(.rela.got)

.rel.bss
 *(.rel.bss)

.rela.bss
 *(.rela.bss)

.rel.plt
 *(.rel.plt)

.rela.plt
 *(.rela.plt)

.text           0x0000000000000000       0xb4
 *(.vectors)
 .vectors       0x0000000000000000       0x54 /Applications/microchip/mplabx/v6.25/packs/Microchip/ATmega_DFP/3.3.279/xc8/avr/lib/avr5/crtatmega32.o
                0x0000000000000000                __vectors
                0x0000000000000000                __vector_default
 *(.vectors)
 *(.progmem.gcc*)
 *(.dinit)
 .dinit         0x0000000000000054        0xc data_init
                0x0000000000000060                . = ALIGN (0x2)
 *fill*         0x0000000000000060        0x0 
                0x0000000000000060                __trampolines_start = .
 *(.trampolines)
 .trampolines   0x0000000000000060        0x0 linker stubs
 *(.trampolines*)
                0x0000000000000060                __trampolines_end = .
 *libprintf_flt.a:*(.progmem.data)
 *libc.a:*(.progmem.data)
                0x0000000000000060                . = ALIGN (0x2)
 *(.jumptables)
 *(.jumptables*)
 *(.lowtext)
 *(.lowtext*)
                0x0000000000000060                __ctors_start = .
 *(.ctors)
                0x0000000000000060                __ctors_end = .
                0x0000000000000060                __dtors_start = .
 *(.dtors)
                0x0000000000000060                __dtors_end = .
 SORT(*)(.ctors)
 SORT(*)(.dtors)
 *(.init0)
 .init0         0x0000000000000060        0x0 /Applications/microchip/mplabx/v6.25/packs/Microchip/ATmega_DFP/3.3.279/xc8/avr/lib/avr5/crtatmega32.o
                0x0000000000000060                __init
 *(.init0)
 *(.init1)
 *(.init1)
 *(.init2)
 .init2         0x0000000000000060        0xc /Applications/microchip/mplabx/v6.25/packs/Microchip/ATmega_DFP/3.3.279/xc8/avr/lib/avr5/crtatmega32.o
 *(.init2)
 *(.init3)
 *(.init3)
 *(.init4)
 .init4         0x000000000000006c       0x3c /Applications/microchip/xc8/v3.00/avr/bin/../lib/gcc/avr/5.4.0/avr5/libgcc.a(_copy_data.o)
                0x000000000000006c                __do_copy_data
                0x000000000000009a                __do_clear_bss
 *(.init4)
 *(.init5)
 *(.init5)
 *(.init6)
 *(.init6)
 *(.init7)
 *(.init7)
 *(.init8)
 *(.init8)
 *(.init9)
 .init9         0x00000000000000a8        0x8 /Applications/microchip/mplabx/v6.25/packs/Microchip/ATmega_DFP/3.3.279/xc8/avr/lib/avr5/crtatmega32.o
 *(.init9)
                0x00000000000000b0                . = ALIGN (0x2)
 *(.fini9)
 .fini9         0x00000000000000b0        0x0 /Applications/microchip/xc8/v3.00/avr/bin/../lib/gcc/avr/5.4.0/avr5/libgcc.a(_exit.o)
                0x00000000000000b0                _exit
 *(.fini9)
 *(.fini8)
 *(.fini8)
 *(.fini7)
 *(.fini7)
 *(.fini6)
 *(.fini6)
 *(.fini5)
 *(.fini5)
 *(.fini4)
 *(.fini4)
 *(.fini3)
 *(.fini3)
 *(.fini2)
 *(.fini2)
 *(.fini1)
 *(.fini1)
 *(.fini0)
 .fini0         0x00000000000000b0        0x4 /Applications/microchip/xc8/v3.00/avr/bin/../lib/gcc/avr/5.4.0/avr5/libgcc.a(_exit.o)
 *(.fini0)
                0x00000000000000b4                _etext = .

.data           0x0000000000800060        0x0 load address 0x00000000000000b4
                [!provide]                        PROVIDE (__data_start, .)
 *(.gnu.linkonce.d*)
 *(.gnu.linkonce.r*)
                0x0000000000800060                . = ALIGN (0x2)
                0x0000000000800060                _edata = .
                [!provide]                        PROVIDE (__data_end, .)

.bss            0x0000000000800060        0x0
                [!provide]                        PROVIDE (__bss_start, .)
 *(COMMON)
                [!provide]                        PROVIDE (__bss_end, .)
                0x00000000000000b4                __data_load_start = LOADADDR (.data)
                0x00000000000000b4                __data_load_end = (__data_load_start + SIZEOF (.data))

.noinit         0x0000000000800060        0x0
                [!provide]                        PROVIDE (__noinit_start, .)
 *(.noinit*)
                [!provide]                        PROVIDE (__noinit_end, .)
                0x0000000000800060                _end = .

.eeprom         0x0000000000810000        0x0
 *(.eeprom*)
                0x0000000000810000                __eeprom_end = .

.fuse
 *(.fuse)
 *(.lfuse)
 *(.hfuse)
 *(.efuse)

.lock
 *(.lock*)

.signature
 *(.signature*)

.user_signatures
 *(.user_signatures*)

.bootrow
 *(.bootrow*)

.stab
 *(.stab)

.stabstr
 *(.stabstr)

.stab.excl
 *(.stab.excl)

.stab.exclstr
 *(.stab.exclstr)

.stab.index
 *(.stab.index)

.stab.indexstr
 *(.stab.indexstr)

.comment        0x0000000000000000       0x5b
 *(.comment)
 .comment       0x0000000000000000       0x2f build/default/production/APP_Layer/main.o
                                         0x30 (size before relaxing)
 .comment       0x000000000000002f       0x30 build/default/production/ECUAL_Layer/Chr_Lcd/ecual_chr_lcd.o
 .comment       0x000000000000002f       0x30 build/default/production/ECUAL_Layer/LED/ecual_led.o
 .comment       0x000000000000002f       0x30 build/default/production/ECUAL_Layer/ECUAL_INIT.o
 .comment       0x000000000000002f       0x30 build/default/production/MCAL_Layer/GPIO/hal_gpio.o
 .comment       0x000000000000002f       0x30 build/default/production/MCAL_Layer/Interrupt/hal_ext_interrupt.o
 .comment       0x000000000000002f       0x30 build/default/production/MCAL_Layer/Interrupt/hal_interrupt_mng.o
 .comment       0x000000000000002f       0x2c /Applications/microchip/xc8/v3.00/avr/bin/../lib/gcc/avr/5.4.0/../../../../avr/lib/avr5/libc.a(exit.o)
                                         0x2d (size before relaxing)
 .comment       0x000000000000005b       0x2d /Applications/microchip/xc8/v3.00/avr/bin/../lib/gcc/avr/5.4.0/../../../../avr/lib/avr5/libc.a(_Exit.o)

.stack.descriptors.hdr
                0x0000000000000000       0x2a
 .stack.descriptors.hdr
                0x0000000000000000        0xe /Applications/microchip/xc8/v3.00/avr/bin/../lib/gcc/avr/5.4.0/../../../../avr/lib/avr5/libc.a(exit.o)
 .stack.descriptors.hdr
                0x000000000000000e        0xe /Applications/microchip/xc8/v3.00/avr/bin/../lib/gcc/avr/5.4.0/../../../../avr/lib/avr5/libc.a(_Exit.o)
 .stack.descriptors.hdr
                0x000000000000001c        0xe /Applications/microchip/xc8/v3.00/avr/bin/../lib/gcc/avr/5.4.0/avr5/libgcc.a(_exit.o)

.note.GNU-stack
                0x0000000000000000        0x0
 .note.GNU-stack
                0x0000000000000000        0x0 /Applications/microchip/xc8/v3.00/avr/bin/../lib/gcc/avr/5.4.0/../../../../avr/lib/avr5/libc.a(exit.o)
 .note.GNU-stack
                0x0000000000000000        0x0 /Applications/microchip/xc8/v3.00/avr/bin/../lib/gcc/avr/5.4.0/../../../../avr/lib/avr5/libc.a(_Exit.o)

.note.gnu.build-id
 *(.note.gnu.build-id)

.debug
 *(.debug)

.line
 *(.line)

.debug_srcinfo
 *(.debug_srcinfo)

.debug_sfnames
 *(.debug_sfnames)

.debug_aranges  0x0000000000000000      0x260
 *(.debug_aranges)
 .debug_aranges
                0x0000000000000000       0x40 build/default/production/APP_Layer/main.o
 .debug_aranges
                0x0000000000000040       0xc8 build/default/production/ECUAL_Layer/Chr_Lcd/ecual_chr_lcd.o
 .debug_aranges
                0x0000000000000108       0x40 build/default/production/ECUAL_Layer/LED/ecual_led.o
 .debug_aranges
                0x0000000000000148       0x20 build/default/production/ECUAL_Layer/ECUAL_INIT.o
 .debug_aranges
                0x0000000000000168       0x78 build/default/production/MCAL_Layer/GPIO/hal_gpio.o
 .debug_aranges
                0x00000000000001e0       0x50 build/default/production/MCAL_Layer/Interrupt/hal_ext_interrupt.o
 .debug_aranges
                0x0000000000000230       0x30 build/default/production/MCAL_Layer/Interrupt/hal_interrupt_mng.o

.debug_pubnames
 *(.debug_pubnames)

.debug_info     0x0000000000000000     0x4c96
 *(.debug_info .gnu.linkonce.wi.*)
 .debug_info    0x0000000000000000      0x4e6 /Applications/microchip/mplabx/v6.25/packs/Microchip/ATmega_DFP/3.3.279/xc8/avr/lib/avr5/crtatmega32.o
 .debug_info    0x00000000000004e6      0x8b6 build/default/production/APP_Layer/main.o
 .debug_info    0x0000000000000d9c     0x1a51 build/default/production/ECUAL_Layer/Chr_Lcd/ecual_chr_lcd.o
 .debug_info    0x00000000000027ed      0x718 build/default/production/ECUAL_Layer/LED/ecual_led.o
 .debug_info    0x0000000000002f05      0x5d1 build/default/production/ECUAL_Layer/ECUAL_INIT.o
 .debug_info    0x00000000000034d6      0x98d build/default/production/MCAL_Layer/GPIO/hal_gpio.o
 .debug_info    0x0000000000003e63      0xabd build/default/production/MCAL_Layer/Interrupt/hal_ext_interrupt.o
 .debug_info    0x0000000000004920      0x376 build/default/production/MCAL_Layer/Interrupt/hal_interrupt_mng.o

.debug_abbrev   0x0000000000000000      0xec5
 *(.debug_abbrev)
 .debug_abbrev  0x0000000000000000      0x4a3 /Applications/microchip/mplabx/v6.25/packs/Microchip/ATmega_DFP/3.3.279/xc8/avr/lib/avr5/crtatmega32.o
 .debug_abbrev  0x00000000000004a3      0x155 build/default/production/APP_Layer/main.o
 .debug_abbrev  0x00000000000005f8      0x27f build/default/production/ECUAL_Layer/Chr_Lcd/ecual_chr_lcd.o
 .debug_abbrev  0x0000000000000877      0x116 build/default/production/ECUAL_Layer/LED/ecual_led.o
 .debug_abbrev  0x000000000000098d      0x108 build/default/production/ECUAL_Layer/ECUAL_INIT.o
 .debug_abbrev  0x0000000000000a95      0x1ce build/default/production/MCAL_Layer/GPIO/hal_gpio.o
 .debug_abbrev  0x0000000000000c63      0x20a build/default/production/MCAL_Layer/Interrupt/hal_ext_interrupt.o
 .debug_abbrev  0x0000000000000e6d       0x58 build/default/production/MCAL_Layer/Interrupt/hal_interrupt_mng.o

.debug_line     0x0000000000000000     0x16ae
 *(.debug_line .debug_line.* .debug_line_end)
 .debug_line    0x0000000000000000      0x116 /Applications/microchip/mplabx/v6.25/packs/Microchip/ATmega_DFP/3.3.279/xc8/avr/lib/avr5/crtatmega32.o
 .debug_line    0x0000000000000116      0x1ec build/default/production/APP_Layer/main.o
 .debug_line    0x0000000000000302      0x81d build/default/production/ECUAL_Layer/Chr_Lcd/ecual_chr_lcd.o
 .debug_line    0x0000000000000b1f      0x255 build/default/production/ECUAL_Layer/LED/ecual_led.o
 .debug_line    0x0000000000000d74       0xef build/default/production/ECUAL_Layer/ECUAL_INIT.o
 .debug_line    0x0000000000000e63      0x3cf build/default/production/MCAL_Layer/GPIO/hal_gpio.o
 .debug_line    0x0000000000001232      0x3cb build/default/production/MCAL_Layer/Interrupt/hal_ext_interrupt.o
 .debug_line    0x00000000000015fd       0xb1 build/default/production/MCAL_Layer/Interrupt/hal_interrupt_mng.o

.debug_frame    0x0000000000000000      0x718
 *(.debug_frame)
 .debug_frame   0x0000000000000000       0x64 build/default/production/APP_Layer/main.o
 .debug_frame   0x0000000000000064      0x354 build/default/production/ECUAL_Layer/Chr_Lcd/ecual_chr_lcd.o
 .debug_frame   0x00000000000003b8       0x98 build/default/production/ECUAL_Layer/LED/ecual_led.o
 .debug_frame   0x0000000000000450       0x24 build/default/production/ECUAL_Layer/ECUAL_INIT.o
 .debug_frame   0x0000000000000474       0xec build/default/production/MCAL_Layer/GPIO/hal_gpio.o
 .debug_frame   0x0000000000000560       0x9c build/default/production/MCAL_Layer/Interrupt/hal_ext_interrupt.o
 .debug_frame   0x00000000000005fc      0x11c build/default/production/MCAL_Layer/Interrupt/hal_interrupt_mng.o

.debug_str      0x0000000000000000      0x33c
 *(.debug_str)
 .debug_str     0x0000000000000000      0x196 /Applications/microchip/mplabx/v6.25/packs/Microchip/ATmega_DFP/3.3.279/xc8/avr/lib/avr5/crtatmega32.o
 .debug_str     0x0000000000000196       0x4b build/default/production/APP_Layer/main.o
 .debug_str     0x00000000000001e1       0x64 build/default/production/ECUAL_Layer/Chr_Lcd/ecual_chr_lcd.o
 .debug_str     0x0000000000000245       0x64 build/default/production/ECUAL_Layer/LED/ecual_led.o
 .debug_str     0x00000000000002a9       0x38 build/default/production/ECUAL_Layer/ECUAL_INIT.o
 .debug_str     0x00000000000002e1       0x1c build/default/production/MCAL_Layer/GPIO/hal_gpio.o
 .debug_str     0x00000000000002fd       0x24 build/default/production/MCAL_Layer/Interrupt/hal_ext_interrupt.o
 .debug_str     0x0000000000000321       0x1b build/default/production/MCAL_Layer/Interrupt/hal_interrupt_mng.o

.debug_loc      0x0000000000000000     0x2846
 *(.debug_loc)
 .debug_loc     0x0000000000000000       0x14 build/default/production/APP_Layer/main.o
 .debug_loc     0x0000000000000014     0x1a92 build/default/production/ECUAL_Layer/Chr_Lcd/ecual_chr_lcd.o
 .debug_loc     0x0000000000001aa6      0x3e9 build/default/production/ECUAL_Layer/LED/ecual_led.o
 .debug_loc     0x0000000000001e8f       0x14 build/default/production/ECUAL_Layer/ECUAL_INIT.o
 .debug_loc     0x0000000000001ea3      0x65e build/default/production/MCAL_Layer/GPIO/hal_gpio.o
 .debug_loc     0x0000000000002501      0x345 build/default/production/MCAL_Layer/Interrupt/hal_ext_interrupt.o

.debug_macinfo
 *(.debug_macinfo)

.debug_weaknames
 *(.debug_weaknames)

.debug_funcnames
 *(.debug_funcnames)

.debug_typenames
 *(.debug_typenames)

.debug_varnames
 *(.debug_varnames)

.debug_pubtypes
 *(.debug_pubtypes)

.debug_ranges   0x0000000000000000      0x238
 *(.debug_ranges)
 .debug_ranges  0x0000000000000000       0x30 build/default/production/APP_Layer/main.o
 .debug_ranges  0x0000000000000030       0xb8 build/default/production/ECUAL_Layer/Chr_Lcd/ecual_chr_lcd.o
 .debug_ranges  0x00000000000000e8       0x60 build/default/production/ECUAL_Layer/LED/ecual_led.o
 .debug_ranges  0x0000000000000148       0x10 build/default/production/ECUAL_Layer/ECUAL_INIT.o
 .debug_ranges  0x0000000000000158       0x68 build/default/production/MCAL_Layer/GPIO/hal_gpio.o
 .debug_ranges  0x00000000000001c0       0x58 build/default/production/MCAL_Layer/Interrupt/hal_ext_interrupt.o
 .debug_ranges  0x0000000000000218       0x20 build/default/production/MCAL_Layer/Interrupt/hal_interrupt_mng.o

.debug_macro
 *(.debug_macro)
OUTPUT(dist/default/production/MCU_ATMEGA32_Drivers.X.production.elf elf32-avr)
LOAD linker stubs
LOAD data_init

.note.gnu.avr.deviceinfo
                0x0000000000000000       0x3c
 .note.gnu.avr.deviceinfo
                0x0000000000000000       0x3c /Applications/microchip/mplabx/v6.25/packs/Microchip/ATmega_DFP/3.3.279/xc8/avr/lib/avr5/crtatmega32.o

.bss.INT2_Handler
                0x000000000080009a        0x2
 .bss.INT2_Handler
                0x000000000080009a        0x2 build/default/production/MCAL_Layer/Interrupt/hal_ext_interrupt.o

.bss.INT1_Handler
                0x000000000080009c        0x2
 .bss.INT1_Handler
                0x000000000080009c        0x2 build/default/production/MCAL_Layer/Interrupt/hal_ext_interrupt.o

.bss.INT0_Handler
                0x000000000080009e        0x2
 .bss.INT0_Handler
                0x000000000080009e        0x2 build/default/production/MCAL_Layer/Interrupt/hal_ext_interrupt.o

.text.External_Interrupt_INTx_INIT
                0x00000000000000b4      0x15a
 .text.External_Interrupt_INTx_INIT
                0x00000000000000b4      0x15a build/default/production/MCAL_Layer/Interrupt/hal_ext_interrupt.o
                0x00000000000000b4                External_Interrupt_INTx_INIT

.text.GPIO_Chr_Lcd_8Bit_INIT
                0x000000000000020e       0xc6
 .text.GPIO_Chr_Lcd_8Bit_INIT
                0x000000000000020e       0xc6 build/default/production/ECUAL_Layer/Chr_Lcd/ecual_chr_lcd.o
                0x000000000000020e                GPIO_Chr_Lcd_8Bit_INIT

.text.GPIO_Chr_Lcd_4Bit_INIT
                0x00000000000002d4       0xbc
 .text.GPIO_Chr_Lcd_4Bit_INIT
                0x00000000000002d4       0xbc build/default/production/ECUAL_Layer/Chr_Lcd/ecual_chr_lcd.o
                0x00000000000002d4                GPIO_Chr_Lcd_4Bit_INIT

.text.GPIO_Pin_Direction_INIT
                0x0000000000000390       0x8e
 .text.GPIO_Pin_Direction_INIT
                0x0000000000000390       0x8e build/default/production/MCAL_Layer/GPIO/hal_gpio.o
                0x0000000000000390                GPIO_Pin_Direction_INIT

.text.GPIO_Pin_Write_Logic
                0x000000000000041e       0x84
 .text.GPIO_Pin_Write_Logic
                0x000000000000041e       0x84 build/default/production/MCAL_Layer/GPIO/hal_gpio.o
                0x000000000000041e                GPIO_Pin_Write_Logic

.text.GPIO_Chr_Lcd_8Bit_Send_Command
                0x00000000000004a2       0x66
 .text.GPIO_Chr_Lcd_8Bit_Send_Command
                0x00000000000004a2       0x66 build/default/production/ECUAL_Layer/Chr_Lcd/ecual_chr_lcd.o
                0x00000000000004a2                GPIO_Chr_Lcd_8Bit_Send_Command

.text.GPIO_Led_INIT
                0x0000000000000508       0x56
 .text.GPIO_Led_INIT
                0x0000000000000508       0x56 build/default/production/ECUAL_Layer/LED/ecual_led.o
                0x0000000000000508                GPIO_Led_INIT

.text.Chr_Lcd_4Bit_Send_4Bit
                0x000000000000055e       0x50
 .text.Chr_Lcd_4Bit_Send_4Bit
                0x000000000000055e       0x50 build/default/production/ECUAL_Layer/Chr_Lcd/ecual_chr_lcd.o

.text.GPIO_Chr_Lcd_4Bit_Send_Command
                0x00000000000005ae       0x4a
 .text.GPIO_Chr_Lcd_4Bit_Send_Command
                0x00000000000005ae       0x4a build/default/production/ECUAL_Layer/Chr_Lcd/ecual_chr_lcd.o
                0x00000000000005ae                GPIO_Chr_Lcd_4Bit_Send_Command

.text.__vector_1
                0x00000000000005f8       0x48
 .text.__vector_1
                0x00000000000005f8       0x48 build/default/production/MCAL_Layer/Interrupt/hal_interrupt_mng.o
                0x00000000000005f8                __vector_1

.text.__vector_2
                0x0000000000000640       0x48
 .text.__vector_2
                0x0000000000000640       0x48 build/default/production/MCAL_Layer/Interrupt/hal_interrupt_mng.o
                0x0000000000000640                __vector_2

.text.__vector_3
                0x0000000000000688       0x48
 .text.__vector_3
                0x0000000000000688       0x48 build/default/production/MCAL_Layer/Interrupt/hal_interrupt_mng.o
                0x0000000000000688                __vector_3

.text.GPIO_Pin_Toggle_Logic
                0x00000000000006d0       0x40
 .text.GPIO_Pin_Toggle_Logic
                0x00000000000006d0       0x40 build/default/production/MCAL_Layer/GPIO/hal_gpio.o
                0x00000000000006d0                GPIO_Pin_Toggle_Logic

.text.External_Interrupt_INTX_Clear_Flag
                0x0000000000000710       0x3a
 .text.External_Interrupt_INTX_Clear_Flag
                0x0000000000000710       0x3a build/default/production/MCAL_Layer/Interrupt/hal_ext_interrupt.o

.text.External_Interrupt_INTX_Disable
                0x000000000000074a       0x3a
 .text.External_Interrupt_INTX_Disable
                0x000000000000074a       0x3a build/default/production/MCAL_Layer/Interrupt/hal_ext_interrupt.o

.text.main      0x0000000000000784       0x36
 .text.main     0x0000000000000784       0x36 build/default/production/APP_Layer/main.o
                0x0000000000000784                main

.text.Chr_Lcd_4Bit_Send_Enable_Signal
                0x00000000000007ba       0x32
 .text.Chr_Lcd_4Bit_Send_Enable_Signal
                0x00000000000007ba       0x32 build/default/production/ECUAL_Layer/Chr_Lcd/ecual_chr_lcd.o

.text.Chr_Lcd_8Bit_Send_Enable_Signal
                0x00000000000007ec       0x32
 .text.Chr_Lcd_8Bit_Send_Enable_Signal
                0x00000000000007ec       0x32 build/default/production/ECUAL_Layer/Chr_Lcd/ecual_chr_lcd.o

.text.GPIO_Pin_INIT
                0x000000000000081e       0x26
 .text.GPIO_Pin_INIT
                0x000000000000081e       0x26 build/default/production/MCAL_Layer/GPIO/hal_gpio.o
                0x000000000000081e                GPIO_Pin_INIT

.text.INT0_ISR  0x0000000000000844       0x16
 .text.INT0_ISR
                0x0000000000000844       0x16 build/default/production/MCAL_Layer/Interrupt/hal_ext_interrupt.o
                0x0000000000000844                INT0_ISR

.text.INT1_ISR  0x000000000000085a       0x16
 .text.INT1_ISR
                0x000000000000085a       0x16 build/default/production/MCAL_Layer/Interrupt/hal_ext_interrupt.o
                0x000000000000085a                INT1_ISR

.text.INT2_ISR  0x0000000000000870       0x16
 .text.INT2_ISR
                0x0000000000000870       0x16 build/default/production/MCAL_Layer/Interrupt/hal_ext_interrupt.o
                0x0000000000000870                INT2_ISR

.text.exit      0x0000000000000886       0x16
 .text.exit     0x0000000000000886       0x16 /Applications/microchip/xc8/v3.00/avr/bin/../lib/gcc/avr/5.4.0/../../../../avr/lib/avr5/libc.a(exit.o)
                0x0000000000000886                exit

.text.Ecual_Init
                0x000000000000089c       0x12
 .text.Ecual_Init
                0x000000000000089c       0x12 build/default/production/ECUAL_Layer/ECUAL_INIT.o
                0x000000000000089c                Ecual_Init

.text.GPIO_Led_Turn_Toggle
                0x00000000000008ae        0xe
 .text.GPIO_Led_Turn_Toggle
                0x00000000000008ae        0xe build/default/production/ECUAL_Layer/LED/ecual_led.o
                0x00000000000008ae                GPIO_Led_Turn_Toggle

.text.int0_isr_app
                0x00000000000008bc        0xa
 .text.int0_isr_app
                0x00000000000008bc        0xa build/default/production/APP_Layer/main.o
                0x00000000000008bc                int0_isr_app

.text.int1_isr_app
                0x00000000000008c6        0xa
 .text.int1_isr_app
                0x00000000000008c6        0xa build/default/production/APP_Layer/main.o
                0x00000000000008c6                int1_isr_app

.text.int2_isr_app
                0x00000000000008d0        0xa
 .text.int2_isr_app
                0x00000000000008d0        0xa build/default/production/APP_Layer/main.o
                0x00000000000008d0                int2_isr_app

.text           0x00000000000008da        0x4
 .text          0x00000000000008da        0x4 /Applications/microchip/mplabx/v6.25/packs/Microchip/ATmega_DFP/3.3.279/xc8/avr/lib/avr5/crtatmega32.o
                0x00000000000008da                __vector_20
                0x00000000000008da                __bad_interrupt
                0x00000000000008da                __vector_6
                0x00000000000008da                __vector_11
                0x00000000000008da                __vector_13
                0x00000000000008da                __vector_17
                0x00000000000008da                __vector_19
                0x00000000000008da                __vector_7
                0x00000000000008da                __vector_5
                0x00000000000008da                __vector_4
                0x00000000000008da                __vector_9
                0x00000000000008da                __vector_15
                0x00000000000008da                __vector_8
                0x00000000000008da                __vector_14
                0x00000000000008da                __vector_10
                0x00000000000008da                __vector_16
                0x00000000000008da                __vector_18
                0x00000000000008da                __vector_12

.text._Exit     0x00000000000008de        0x4
 .text._Exit    0x00000000000008de        0x4 /Applications/microchip/xc8/v3.00/avr/bin/../lib/gcc/avr/5.4.0/../../../../avr/lib/avr5/libc.a(_Exit.o)
                0x00000000000008de                _Exit

.text.__dummy_fini
                0x00000000000008e2        0x2
 .text.__dummy_fini
                0x00000000000008e2        0x2 /Applications/microchip/xc8/v3.00/avr/bin/../lib/gcc/avr/5.4.0/../../../../avr/lib/avr5/libc.a(exit.o)
                0x00000000000008e2                _fini

.text.__dummy_funcs_on_exit
                0x00000000000008e4        0x2
 .text.__dummy_funcs_on_exit
                0x00000000000008e4        0x2 /Applications/microchip/xc8/v3.00/avr/bin/../lib/gcc/avr/5.4.0/../../../../avr/lib/avr5/libc.a(exit.o)
                0x00000000000008e4                __funcs_on_exit

.text.__dummy_simulator_exit
                0x00000000000008e6        0x2
 .text.__dummy_simulator_exit
                0x00000000000008e6        0x2 /Applications/microchip/xc8/v3.00/avr/bin/../lib/gcc/avr/5.4.0/../../../../avr/lib/avr5/libc.a(exit.o)
                0x00000000000008e6                __simulator_exit

.data.lcd2      0x0000000000800060        0xb load address 0x00000000000008e8
 .data.lcd2     0x0000000000800060        0xb build/default/production/ECUAL_Layer/ECUAL_INIT.o
                0x0000000000800060                lcd2

.data.PORT_REGs
                0x000000000080006b        0x8 load address 0x00000000000008f3
 .data.PORT_REGs
                0x000000000080006b        0x8 build/default/production/MCAL_Layer/GPIO/hal_gpio.o
                0x000000000080006b                PORT_REGs

.data.DDR_REGs  0x0000000000800073        0x8 load address 0x00000000000008fb
 .data.DDR_REGs
                0x0000000000800073        0x8 build/default/production/MCAL_Layer/GPIO/hal_gpio.o
                0x0000000000800073                DDR_REGs

.data.lcd1      0x000000000080007b        0x7 load address 0x0000000000000903
 .data.lcd1     0x000000000080007b        0x7 build/default/production/ECUAL_Layer/ECUAL_INIT.o
                0x000000000080007b                lcd1

.data.int02     0x0000000000800082        0x5 load address 0x000000000000090a
 .data.int02    0x0000000000800082        0x5 build/default/production/APP_Layer/main.o
                0x0000000000800082                int02

.data.int01     0x0000000000800087        0x5 load address 0x000000000000090f
 .data.int01    0x0000000000800087        0x5 build/default/production/APP_Layer/main.o
                0x0000000000800087                int01

.data.int00     0x000000000080008c        0x5 load address 0x0000000000000914
 .data.int00    0x000000000080008c        0x5 build/default/production/APP_Layer/main.o
                0x000000000080008c                int00

.data.led3      0x0000000000800091        0x3 load address 0x0000000000000919
 .data.led3     0x0000000000800091        0x3 build/default/production/APP_Layer/main.o
                0x0000000000800091                led3

.data.led2      0x0000000000800094        0x3 load address 0x000000000000091c
 .data.led2     0x0000000000800094        0x3 build/default/production/APP_Layer/main.o
                0x0000000000800094                led2

.data.led1      0x0000000000800097        0x3 load address 0x000000000000091f
 .data.led1     0x0000000000800097        0x3 build/default/production/APP_Layer/main.o
                0x0000000000800097                led1
