

Microchip MPLAB XC8 Assembler V3.00 build 20241204225717 
                                                                                               Sun Jul 13 14:57:04 2025

Microchip MPLAB XC8 C Compiler v3.00 (Free license) build 20241204225717 Og1 
     1                           	processor	18F46K20
     2                           	fnconf	rparam,??,?,0
     3                           	pagewidth 120
     4                           	opt	flic
     5                           	psect	idataCOMRAM,global,class=CODE,space=0,delta=1,noexec
     6                           	psect	smallconst,global,reloc=2,class=SMALLCONST,space=0,delta=1,noexec
     7                           	psect	cinit,global,reloc=2,class=CODE,space=0,delta=1
     8                           	psect	bssCOMRAM,global,class=COMRAM,space=1,delta=1,lowdata,noexec
     9                           	psect	dataCOMRAM,global,class=COMRAM,space=1,delta=1,lowdata,noexec
    10                           	psect	cstackCOMRAM,global,class=COMRAM,space=1,delta=1,lowdata,noexec
    11                           	psect	text0,global,reloc=2,class=CODE,space=0,delta=1
    12                           	psect	text1,global,reloc=2,class=CODE,space=0,delta=1
    13                           	psect	text2,global,reloc=2,class=CODE,space=0,delta=1
    14                           	psect	text3,global,reloc=2,class=CODE,space=0,delta=1
    15                           	psect	text4,global,reloc=2,class=CODE,space=0,delta=1
    16                           	psect	text5,global,reloc=2,class=CODE,space=0,delta=1
    17                           	psect	text6,global,reloc=2,class=CODE,space=0,delta=1
    18                           	psect	text7,global,reloc=2,class=CODE,space=0,delta=1
    19                           	psect	text8,global,reloc=2,class=CODE,space=0,delta=1
    20                           	psect	text9,global,reloc=2,class=CODE,space=0,delta=1
    21                           	psect	intsave_regs,global,class=BIGRAM,space=1,delta=1,noexec
    22                           	psect	rparam,global,class=COMRAM,space=1,delta=1,noexec
    23                           	psect	config,global,abs,ovrld,class=CONFIG,space=4,delta=1,noexec
    24   000000                     
    25                           ; Generated 13/12/2024 GMT
    26                           ; 
    27                           ; Copyright © 2024, Microchip Technology Inc. and its subsidiaries ("Microchip")
    28                           ; All rights reserved.
    29                           ; 
    30                           ; This software is developed by Microchip Technology Inc. and its subsidiaries ("Microch
      +                          ip").
    31                           ; 
    32                           ; Redistribution and use in source and binary forms, with or without modification, are
    33                           ; permitted provided that the following conditions are met:
    34                           ; 
    35                           ;     1. Redistributions of source code must retain the above copyright notice, this lis
      +                          t of
    36                           ;        conditions and the following disclaimer.
    37                           ; 
    38                           ;     2. Redistributions in binary form must reproduce the above copyright notice, this 
      +                          list
    39                           ;        of conditions and the following disclaimer in the documentation and/or other
    40                           ;        materials provided with the distribution. Publication is not required when
    41                           ;        this file is used in an embedded application.
    42                           ; 
    43                           ;     3. Microchip's name may not be used to endorse or promote products derived from th
      +                          is
    44                           ;        software without specific prior written permission.
    45                           ; 
    46                           ; THIS SOFTWARE IS PROVIDED BY MICROCHIP "AS IS" AND ANY EXPRESS OR IMPLIED WARRANTIES,
    47                           ; INCLUDING, BUT NOT LIMITED TO, THE IMPLIED WARRANTIES OF MERCHANTABILITY AND FITNESS F
      +                          OR
    48                           ; PURPOSE ARE DISCLAIMED.  IN NO EVENT SHALL MICROCHIP BE LIABLE FOR ANY DIRECT, INDIREC
      +                          T,
    49                           ; INCIDENTAL, SPECIAL, EXEMPLARY, OR CONSEQUENTIAL DAMAGES (INCLUDING BUT NOT LIMITED TO
    50                           ; PROCUREMENT OF SUBSTITUTE GOODS OR SERVICES; LOSS OF USE, DATA OR PROFITS; OR BUSINESS
    51                           ; INTERRUPTION) HOWSOEVER CAUSED AND ON ANY THEORY OF LIABILITY, WHETHER IN CONTRACT, ST
      +                          RICT
    52                           ; LIABILITY, OR TORT (INCLUDING NEGLIGENCE OR OTHERWISE) ARISING IN ANY WAY OUT OF THE U
      +                          SE OF
    53                           ; THIS SOFTWARE, EVEN IF ADVISED OF THE POSSIBILITY OF SUCH DAMAGE.
    54                           ; 
    55                           ; 
    56                           ; Code-generator required, PIC18F46K20 Definitions
    57                           ; 
    58                           ; SFR Addresses
    59   000FE0                     bsr             equ	4064
    60   000FE9                     fsr0            equ	4073
    61   000FEA                     fsr0h           equ	4074
    62   000FE9                     fsr0l           equ	4073
    63   000FE1                     fsr1            equ	4065
    64   000FE2                     fsr1h           equ	4066
    65   000FE1                     fsr1l           equ	4065
    66   000FD9                     fsr2            equ	4057
    67   000FDA                     fsr2h           equ	4058
    68   000FD9                     fsr2l           equ	4057
    69   000FEF                     indf0           equ	4079
    70   000FE7                     indf1           equ	4071
    71   000FDF                     indf2           equ	4063
    72   000FF2                     intcon          equ	4082
    73   000000                     nvmcon          equ	0
    74   000FF9                     pcl             equ	4089
    75   000FFA                     pclath          equ	4090
    76   000FFB                     pclatu          equ	4091
    77   000FEB                     plusw0          equ	4075
    78   000FE3                     plusw1          equ	4067
    79   000FDB                     plusw2          equ	4059
    80   000FED                     postdec0        equ	4077
    81   000FE5                     postdec1        equ	4069
    82   000FDD                     postdec2        equ	4061
    83   000FEE                     postinc0        equ	4078
    84   000FE6                     postinc1        equ	4070
    85   000FDE                     postinc2        equ	4062
    86   000FEC                     preinc0         equ	4076
    87   000FE4                     preinc1         equ	4068
    88   000FDC                     preinc2         equ	4060
    89   000FF3                     prod            equ	4083
    90   000FF4                     prodh           equ	4084
    91   000FF3                     prodl           equ	4083
    92   000FD8                     status          equ	4056
    93   000FF5                     tablat          equ	4085
    94   000FF6                     tblptr          equ	4086
    95   000FF7                     tblptrh         equ	4087
    96   000FF6                     tblptrl         equ	4086
    97   000FF8                     tblptru         equ	4088
    98   000FFD                     tosl            equ	4093
    99   000FE8                     wreg            equ	4072
   100   000F77                     SSPMSK          equ	3959	;# 
   101   000F78                     SLRCON          equ	3960	;# 
   102   000F79                     CM2CON1         equ	3961	;# 
   103   000F7A                     CM2CON0         equ	3962	;# 
   104   000F7B                     CM1CON0         equ	3963	;# 
   105   000F7C                     WPUB            equ	3964	;# 
   106   000F7D                     IOCB            equ	3965	;# 
   107   000F7E                     ANSEL           equ	3966	;# 
   108   000F7F                     ANSELH          equ	3967	;# 
   109   000F80                     PORTA           equ	3968	;# 
   110   000F81                     PORTB           equ	3969	;# 
   111   000F82                     PORTC           equ	3970	;# 
   112   000F83                     PORTD           equ	3971	;# 
   113   000F84                     PORTE           equ	3972	;# 
   114   000F89                     LATA            equ	3977	;# 
   115   000F8A                     LATB            equ	3978	;# 
   116   000F8B                     LATC            equ	3979	;# 
   117   000F8C                     LATD            equ	3980	;# 
   118   000F8D                     LATE            equ	3981	;# 
   119   000F92                     TRISA           equ	3986	;# 
   120   000F92                     DDRA            equ	3986	;# 
   121   000F93                     TRISB           equ	3987	;# 
   122   000F93                     DDRB            equ	3987	;# 
   123   000F94                     TRISC           equ	3988	;# 
   124   000F94                     DDRC            equ	3988	;# 
   125   000F95                     TRISD           equ	3989	;# 
   126   000F95                     DDRD            equ	3989	;# 
   127   000F96                     TRISE           equ	3990	;# 
   128   000F96                     DDRE            equ	3990	;# 
   129   000F9B                     OSCTUNE         equ	3995	;# 
   130   000F9D                     PIE1            equ	3997	;# 
   131   000F9E                     PIR1            equ	3998	;# 
   132   000F9F                     IPR1            equ	3999	;# 
   133   000FA0                     PIE2            equ	4000	;# 
   134   000FA1                     PIR2            equ	4001	;# 
   135   000FA2                     IPR2            equ	4002	;# 
   136   000FA6                     EECON1          equ	4006	;# 
   137   000FA7                     EECON2          equ	4007	;# 
   138   000FA8                     EEDATA          equ	4008	;# 
   139   000FA9                     EEADR           equ	4009	;# 
   140   000FAA                     EEADRH          equ	4010	;# 
   141   000FAB                     RCSTA           equ	4011	;# 
   142   000FAB                     RCSTA1          equ	4011	;# 
   143   000FAC                     TXSTA           equ	4012	;# 
   144   000FAC                     TXSTA1          equ	4012	;# 
   145   000FAD                     TXREG           equ	4013	;# 
   146   000FAD                     TXREG1          equ	4013	;# 
   147   000FAE                     RCREG           equ	4014	;# 
   148   000FAE                     RCREG1          equ	4014	;# 
   149   000FAF                     SPBRG           equ	4015	;# 
   150   000FAF                     SPBRG1          equ	4015	;# 
   151   000FB0                     SPBRGH          equ	4016	;# 
   152   000FB1                     T3CON           equ	4017	;# 
   153   000FB2                     TMR3            equ	4018	;# 
   154   000FB2                     TMR3L           equ	4018	;# 
   155   000FB3                     TMR3H           equ	4019	;# 
   156   000FB4                     CVRCON2         equ	4020	;# 
   157   000FB5                     CVRCON          equ	4021	;# 
   158   000FB6                     ECCP1AS         equ	4022	;# 
   159   000FB7                     PWM1CON         equ	4023	;# 
   160   000FB8                     BAUDCON         equ	4024	;# 
   161   000FB8                     BAUDCTL         equ	4024	;# 
   162   000FB9                     PSTRCON         equ	4025	;# 
   163   000FBA                     CCP2CON         equ	4026	;# 
   164   000FBB                     CCPR2           equ	4027	;# 
   165   000FBB                     CCPR2L          equ	4027	;# 
   166   000FBC                     CCPR2H          equ	4028	;# 
   167   000FBD                     CCP1CON         equ	4029	;# 
   168   000FBE                     CCPR1           equ	4030	;# 
   169   000FBE                     CCPR1L          equ	4030	;# 
   170   000FBF                     CCPR1H          equ	4031	;# 
   171   000FC0                     ADCON2          equ	4032	;# 
   172   000FC1                     ADCON1          equ	4033	;# 
   173   000FC2                     ADCON0          equ	4034	;# 
   174   000FC3                     ADRES           equ	4035	;# 
   175   000FC3                     ADRESL          equ	4035	;# 
   176   000FC4                     ADRESH          equ	4036	;# 
   177   000FC5                     SSPCON2         equ	4037	;# 
   178   000FC6                     SSPCON1         equ	4038	;# 
   179   000FC7                     SSPSTAT         equ	4039	;# 
   180   000FC8                     SSPADD          equ	4040	;# 
   181   000FC9                     SSPBUF          equ	4041	;# 
   182   000FCA                     T2CON           equ	4042	;# 
   183   000FCB                     PR2             equ	4043	;# 
   184   000FCB                     MEMCON          equ	4043	;# 
   185   000FCC                     TMR2            equ	4044	;# 
   186   000FCD                     T1CON           equ	4045	;# 
   187   000FCE                     TMR1            equ	4046	;# 
   188   000FCE                     TMR1L           equ	4046	;# 
   189   000FCF                     TMR1H           equ	4047	;# 
   190   000FD0                     RCON            equ	4048	;# 
   191   000FD1                     WDTCON          equ	4049	;# 
   192   000FD2                     HLVDCON         equ	4050	;# 
   193   000FD2                     LVDCON          equ	4050	;# 
   194   000FD3                     OSCCON          equ	4051	;# 
   195   000FD5                     T0CON           equ	4053	;# 
   196   000FD6                     TMR0            equ	4054	;# 
   197   000FD6                     TMR0L           equ	4054	;# 
   198   000FD7                     TMR0H           equ	4055	;# 
   199   000FD8                     STATUS          equ	4056	;# 
   200   000FD9                     FSR2            equ	4057	;# 
   201   000FD9                     FSR2L           equ	4057	;# 
   202   000FDA                     FSR2H           equ	4058	;# 
   203   000FDB                     PLUSW2          equ	4059	;# 
   204   000FDC                     PREINC2         equ	4060	;# 
   205   000FDD                     POSTDEC2        equ	4061	;# 
   206   000FDE                     POSTINC2        equ	4062	;# 
   207   000FDF                     INDF2           equ	4063	;# 
   208   000FE0                     BSR             equ	4064	;# 
   209   000FE1                     FSR1            equ	4065	;# 
   210   000FE1                     FSR1L           equ	4065	;# 
   211   000FE2                     FSR1H           equ	4066	;# 
   212   000FE3                     PLUSW1          equ	4067	;# 
   213   000FE4                     PREINC1         equ	4068	;# 
   214   000FE5                     POSTDEC1        equ	4069	;# 
   215   000FE6                     POSTINC1        equ	4070	;# 
   216   000FE7                     INDF1           equ	4071	;# 
   217   000FE8                     WREG            equ	4072	;# 
   218   000FE9                     FSR0            equ	4073	;# 
   219   000FE9                     FSR0L           equ	4073	;# 
   220   000FEA                     FSR0H           equ	4074	;# 
   221   000FEB                     PLUSW0          equ	4075	;# 
   222   000FEC                     PREINC0         equ	4076	;# 
   223   000FED                     POSTDEC0        equ	4077	;# 
   224   000FEE                     POSTINC0        equ	4078	;# 
   225   000FEF                     INDF0           equ	4079	;# 
   226   000FF0                     INTCON3         equ	4080	;# 
   227   000FF1                     INTCON2         equ	4081	;# 
   228   000FF2                     INTCON          equ	4082	;# 
   229   000FF3                     PROD            equ	4083	;# 
   230   000FF3                     PRODL           equ	4083	;# 
   231   000FF4                     PRODH           equ	4084	;# 
   232   000FF5                     TABLAT          equ	4085	;# 
   233   000FF6                     TBLPTR          equ	4086	;# 
   234   000FF6                     TBLPTRL         equ	4086	;# 
   235   000FF7                     TBLPTRH         equ	4087	;# 
   236   000FF8                     TBLPTRU         equ	4088	;# 
   237   000FF9                     PCLAT           equ	4089	;# 
   238   000FF9                     PC              equ	4089	;# 
   239   000FF9                     PCL             equ	4089	;# 
   240   000FFA                     PCLATH          equ	4090	;# 
   241   000FFB                     PCLATU          equ	4091	;# 
   242   000FFC                     STKPTR          equ	4092	;# 
   243   000FFD                     TOS             equ	4093	;# 
   244   000FFD                     TOSL            equ	4093	;# 
   245   000FFE                     TOSH            equ	4094	;# 
   246   000FFF                     TOSU            equ	4095	;# 
   247   000F77                     SSPMSK          equ	3959	;# 
   248   000F78                     SLRCON          equ	3960	;# 
   249   000F79                     CM2CON1         equ	3961	;# 
   250   000F7A                     CM2CON0         equ	3962	;# 
   251   000F7B                     CM1CON0         equ	3963	;# 
   252   000F7C                     WPUB            equ	3964	;# 
   253   000F7D                     IOCB            equ	3965	;# 
   254   000F7E                     ANSEL           equ	3966	;# 
   255   000F7F                     ANSELH          equ	3967	;# 
   256   000F80                     PORTA           equ	3968	;# 
   257   000F81                     PORTB           equ	3969	;# 
   258   000F82                     PORTC           equ	3970	;# 
   259   000F83                     PORTD           equ	3971	;# 
   260   000F84                     PORTE           equ	3972	;# 
   261   000F89                     LATA            equ	3977	;# 
   262   000F8A                     LATB            equ	3978	;# 
   263   000F8B                     LATC            equ	3979	;# 
   264   000F8C                     LATD            equ	3980	;# 
   265   000F8D                     LATE            equ	3981	;# 
   266   000F92                     TRISA           equ	3986	;# 
   267   000F92                     DDRA            equ	3986	;# 
   268   000F93                     TRISB           equ	3987	;# 
   269   000F93                     DDRB            equ	3987	;# 
   270   000F94                     TRISC           equ	3988	;# 
   271   000F94                     DDRC            equ	3988	;# 
   272   000F95                     TRISD           equ	3989	;# 
   273   000F95                     DDRD            equ	3989	;# 
   274   000F96                     TRISE           equ	3990	;# 
   275   000F96                     DDRE            equ	3990	;# 
   276   000F9B                     OSCTUNE         equ	3995	;# 
   277   000F9D                     PIE1            equ	3997	;# 
   278   000F9E                     PIR1            equ	3998	;# 
   279   000F9F                     IPR1            equ	3999	;# 
   280   000FA0                     PIE2            equ	4000	;# 
   281   000FA1                     PIR2            equ	4001	;# 
   282   000FA2                     IPR2            equ	4002	;# 
   283   000FA6                     EECON1          equ	4006	;# 
   284   000FA7                     EECON2          equ	4007	;# 
   285   000FA8                     EEDATA          equ	4008	;# 
   286   000FA9                     EEADR           equ	4009	;# 
   287   000FAA                     EEADRH          equ	4010	;# 
   288   000FAB                     RCSTA           equ	4011	;# 
   289   000FAB                     RCSTA1          equ	4011	;# 
   290   000FAC                     TXSTA           equ	4012	;# 
   291   000FAC                     TXSTA1          equ	4012	;# 
   292   000FAD                     TXREG           equ	4013	;# 
   293   000FAD                     TXREG1          equ	4013	;# 
   294   000FAE                     RCREG           equ	4014	;# 
   295   000FAE                     RCREG1          equ	4014	;# 
   296   000FAF                     SPBRG           equ	4015	;# 
   297   000FAF                     SPBRG1          equ	4015	;# 
   298   000FB0                     SPBRGH          equ	4016	;# 
   299   000FB1                     T3CON           equ	4017	;# 
   300   000FB2                     TMR3            equ	4018	;# 
   301   000FB2                     TMR3L           equ	4018	;# 
   302   000FB3                     TMR3H           equ	4019	;# 
   303   000FB4                     CVRCON2         equ	4020	;# 
   304   000FB5                     CVRCON          equ	4021	;# 
   305   000FB6                     ECCP1AS         equ	4022	;# 
   306   000FB7                     PWM1CON         equ	4023	;# 
   307   000FB8                     BAUDCON         equ	4024	;# 
   308   000FB8                     BAUDCTL         equ	4024	;# 
   309   000FB9                     PSTRCON         equ	4025	;# 
   310   000FBA                     CCP2CON         equ	4026	;# 
   311   000FBB                     CCPR2           equ	4027	;# 
   312   000FBB                     CCPR2L          equ	4027	;# 
   313   000FBC                     CCPR2H          equ	4028	;# 
   314   000FBD                     CCP1CON         equ	4029	;# 
   315   000FBE                     CCPR1           equ	4030	;# 
   316   000FBE                     CCPR1L          equ	4030	;# 
   317   000FBF                     CCPR1H          equ	4031	;# 
   318   000FC0                     ADCON2          equ	4032	;# 
   319   000FC1                     ADCON1          equ	4033	;# 
   320   000FC2                     ADCON0          equ	4034	;# 
   321   000FC3                     ADRES           equ	4035	;# 
   322   000FC3                     ADRESL          equ	4035	;# 
   323   000FC4                     ADRESH          equ	4036	;# 
   324   000FC5                     SSPCON2         equ	4037	;# 
   325   000FC6                     SSPCON1         equ	4038	;# 
   326   000FC7                     SSPSTAT         equ	4039	;# 
   327   000FC8                     SSPADD          equ	4040	;# 
   328   000FC9                     SSPBUF          equ	4041	;# 
   329   000FCA                     T2CON           equ	4042	;# 
   330   000FCB                     PR2             equ	4043	;# 
   331   000FCB                     MEMCON          equ	4043	;# 
   332   000FCC                     TMR2            equ	4044	;# 
   333   000FCD                     T1CON           equ	4045	;# 
   334   000FCE                     TMR1            equ	4046	;# 
   335   000FCE                     TMR1L           equ	4046	;# 
   336   000FCF                     TMR1H           equ	4047	;# 
   337   000FD0                     RCON            equ	4048	;# 
   338   000FD1                     WDTCON          equ	4049	;# 
   339   000FD2                     HLVDCON         equ	4050	;# 
   340   000FD2                     LVDCON          equ	4050	;# 
   341   000FD3                     OSCCON          equ	4051	;# 
   342   000FD5                     T0CON           equ	4053	;# 
   343   000FD6                     TMR0            equ	4054	;# 
   344   000FD6                     TMR0L           equ	4054	;# 
   345   000FD7                     TMR0H           equ	4055	;# 
   346   000FD8                     STATUS          equ	4056	;# 
   347   000FD9                     FSR2            equ	4057	;# 
   348   000FD9                     FSR2L           equ	4057	;# 
   349   000FDA                     FSR2H           equ	4058	;# 
   350   000FDB                     PLUSW2          equ	4059	;# 
   351   000FDC                     PREINC2         equ	4060	;# 
   352   000FDD                     POSTDEC2        equ	4061	;# 
   353   000FDE                     POSTINC2        equ	4062	;# 
   354   000FDF                     INDF2           equ	4063	;# 
   355   000FE0                     BSR             equ	4064	;# 
   356   000FE1                     FSR1            equ	4065	;# 
   357   000FE1                     FSR1L           equ	4065	;# 
   358   000FE2                     FSR1H           equ	4066	;# 
   359   000FE3                     PLUSW1          equ	4067	;# 
   360   000FE4                     PREINC1         equ	4068	;# 
   361   000FE5                     POSTDEC1        equ	4069	;# 
   362   000FE6                     POSTINC1        equ	4070	;# 
   363   000FE7                     INDF1           equ	4071	;# 
   364   000FE8                     WREG            equ	4072	;# 
   365   000FE9                     FSR0            equ	4073	;# 
   366   000FE9                     FSR0L           equ	4073	;# 
   367   000FEA                     FSR0H           equ	4074	;# 
   368   000FEB                     PLUSW0          equ	4075	;# 
   369   000FEC                     PREINC0         equ	4076	;# 
   370   000FED                     POSTDEC0        equ	4077	;# 
   371   000FEE                     POSTINC0        equ	4078	;# 
   372   000FEF                     INDF0           equ	4079	;# 
   373   000FF0                     INTCON3         equ	4080	;# 
   374   000FF1                     INTCON2         equ	4081	;# 
   375   000FF2                     INTCON          equ	4082	;# 
   376   000FF3                     PROD            equ	4083	;# 
   377   000FF3                     PRODL           equ	4083	;# 
   378   000FF4                     PRODH           equ	4084	;# 
   379   000FF5                     TABLAT          equ	4085	;# 
   380   000FF6                     TBLPTR          equ	4086	;# 
   381   000FF6                     TBLPTRL         equ	4086	;# 
   382   000FF7                     TBLPTRH         equ	4087	;# 
   383   000FF8                     TBLPTRU         equ	4088	;# 
   384   000FF9                     PCLAT           equ	4089	;# 
   385   000FF9                     PC              equ	4089	;# 
   386   000FF9                     PCL             equ	4089	;# 
   387   000FFA                     PCLATH          equ	4090	;# 
   388   000FFB                     PCLATU          equ	4091	;# 
   389   000FFC                     STKPTR          equ	4092	;# 
   390   000FFD                     TOS             equ	4093	;# 
   391   000FFD                     TOSL            equ	4093	;# 
   392   000FFE                     TOSH            equ	4094	;# 
   393   000FFF                     TOSU            equ	4095	;# 
   394   000F77                     SSPMSK          equ	3959	;# 
   395   000F78                     SLRCON          equ	3960	;# 
   396   000F79                     CM2CON1         equ	3961	;# 
   397   000F7A                     CM2CON0         equ	3962	;# 
   398   000F7B                     CM1CON0         equ	3963	;# 
   399   000F7C                     WPUB            equ	3964	;# 
   400   000F7D                     IOCB            equ	3965	;# 
   401   000F7E                     ANSEL           equ	3966	;# 
   402   000F7F                     ANSELH          equ	3967	;# 
   403   000F80                     PORTA           equ	3968	;# 
   404   000F81                     PORTB           equ	3969	;# 
   405   000F82                     PORTC           equ	3970	;# 
   406   000F83                     PORTD           equ	3971	;# 
   407   000F84                     PORTE           equ	3972	;# 
   408   000F89                     LATA            equ	3977	;# 
   409   000F8A                     LATB            equ	3978	;# 
   410   000F8B                     LATC            equ	3979	;# 
   411   000F8C                     LATD            equ	3980	;# 
   412   000F8D                     LATE            equ	3981	;# 
   413   000F92                     TRISA           equ	3986	;# 
   414   000F92                     DDRA            equ	3986	;# 
   415   000F93                     TRISB           equ	3987	;# 
   416   000F93                     DDRB            equ	3987	;# 
   417   000F94                     TRISC           equ	3988	;# 
   418   000F94                     DDRC            equ	3988	;# 
   419   000F95                     TRISD           equ	3989	;# 
   420   000F95                     DDRD            equ	3989	;# 
   421   000F96                     TRISE           equ	3990	;# 
   422   000F96                     DDRE            equ	3990	;# 
   423   000F9B                     OSCTUNE         equ	3995	;# 
   424   000F9D                     PIE1            equ	3997	;# 
   425   000F9E                     PIR1            equ	3998	;# 
   426   000F9F                     IPR1            equ	3999	;# 
   427   000FA0                     PIE2            equ	4000	;# 
   428   000FA1                     PIR2            equ	4001	;# 
   429   000FA2                     IPR2            equ	4002	;# 
   430   000FA6                     EECON1          equ	4006	;# 
   431   000FA7                     EECON2          equ	4007	;# 
   432   000FA8                     EEDATA          equ	4008	;# 
   433   000FA9                     EEADR           equ	4009	;# 
   434   000FAA                     EEADRH          equ	4010	;# 
   435   000FAB                     RCSTA           equ	4011	;# 
   436   000FAB                     RCSTA1          equ	4011	;# 
   437   000FAC                     TXSTA           equ	4012	;# 
   438   000FAC                     TXSTA1          equ	4012	;# 
   439   000FAD                     TXREG           equ	4013	;# 
   440   000FAD                     TXREG1          equ	4013	;# 
   441   000FAE                     RCREG           equ	4014	;# 
   442   000FAE                     RCREG1          equ	4014	;# 
   443   000FAF                     SPBRG           equ	4015	;# 
   444   000FAF                     SPBRG1          equ	4015	;# 
   445   000FB0                     SPBRGH          equ	4016	;# 
   446   000FB1                     T3CON           equ	4017	;# 
   447   000FB2                     TMR3            equ	4018	;# 
   448   000FB2                     TMR3L           equ	4018	;# 
   449   000FB3                     TMR3H           equ	4019	;# 
   450   000FB4                     CVRCON2         equ	4020	;# 
   451   000FB5                     CVRCON          equ	4021	;# 
   452   000FB6                     ECCP1AS         equ	4022	;# 
   453   000FB7                     PWM1CON         equ	4023	;# 
   454   000FB8                     BAUDCON         equ	4024	;# 
   455   000FB8                     BAUDCTL         equ	4024	;# 
   456   000FB9                     PSTRCON         equ	4025	;# 
   457   000FBA                     CCP2CON         equ	4026	;# 
   458   000FBB                     CCPR2           equ	4027	;# 
   459   000FBB                     CCPR2L          equ	4027	;# 
   460   000FBC                     CCPR2H          equ	4028	;# 
   461   000FBD                     CCP1CON         equ	4029	;# 
   462   000FBE                     CCPR1           equ	4030	;# 
   463   000FBE                     CCPR1L          equ	4030	;# 
   464   000FBF                     CCPR1H          equ	4031	;# 
   465   000FC0                     ADCON2          equ	4032	;# 
   466   000FC1                     ADCON1          equ	4033	;# 
   467   000FC2                     ADCON0          equ	4034	;# 
   468   000FC3                     ADRES           equ	4035	;# 
   469   000FC3                     ADRESL          equ	4035	;# 
   470   000FC4                     ADRESH          equ	4036	;# 
   471   000FC5                     SSPCON2         equ	4037	;# 
   472   000FC6                     SSPCON1         equ	4038	;# 
   473   000FC7                     SSPSTAT         equ	4039	;# 
   474   000FC8                     SSPADD          equ	4040	;# 
   475   000FC9                     SSPBUF          equ	4041	;# 
   476   000FCA                     T2CON           equ	4042	;# 
   477   000FCB                     PR2             equ	4043	;# 
   478   000FCB                     MEMCON          equ	4043	;# 
   479   000FCC                     TMR2            equ	4044	;# 
   480   000FCD                     T1CON           equ	4045	;# 
   481   000FCE                     TMR1            equ	4046	;# 
   482   000FCE                     TMR1L           equ	4046	;# 
   483   000FCF                     TMR1H           equ	4047	;# 
   484   000FD0                     RCON            equ	4048	;# 
   485   000FD1                     WDTCON          equ	4049	;# 
   486   000FD2                     HLVDCON         equ	4050	;# 
   487   000FD2                     LVDCON          equ	4050	;# 
   488   000FD3                     OSCCON          equ	4051	;# 
   489   000FD5                     T0CON           equ	4053	;# 
   490   000FD6                     TMR0            equ	4054	;# 
   491   000FD6                     TMR0L           equ	4054	;# 
   492   000FD7                     TMR0H           equ	4055	;# 
   493   000FD8                     STATUS          equ	4056	;# 
   494   000FD9                     FSR2            equ	4057	;# 
   495   000FD9                     FSR2L           equ	4057	;# 
   496   000FDA                     FSR2H           equ	4058	;# 
   497   000FDB                     PLUSW2          equ	4059	;# 
   498   000FDC                     PREINC2         equ	4060	;# 
   499   000FDD                     POSTDEC2        equ	4061	;# 
   500   000FDE                     POSTINC2        equ	4062	;# 
   501   000FDF                     INDF2           equ	4063	;# 
   502   000FE0                     BSR             equ	4064	;# 
   503   000FE1                     FSR1            equ	4065	;# 
   504   000FE1                     FSR1L           equ	4065	;# 
   505   000FE2                     FSR1H           equ	4066	;# 
   506   000FE3                     PLUSW1          equ	4067	;# 
   507   000FE4                     PREINC1         equ	4068	;# 
   508   000FE5                     POSTDEC1        equ	4069	;# 
   509   000FE6                     POSTINC1        equ	4070	;# 
   510   000FE7                     INDF1           equ	4071	;# 
   511   000FE8                     WREG            equ	4072	;# 
   512   000FE9                     FSR0            equ	4073	;# 
   513   000FE9                     FSR0L           equ	4073	;# 
   514   000FEA                     FSR0H           equ	4074	;# 
   515   000FEB                     PLUSW0          equ	4075	;# 
   516   000FEC                     PREINC0         equ	4076	;# 
   517   000FED                     POSTDEC0        equ	4077	;# 
   518   000FEE                     POSTINC0        equ	4078	;# 
   519   000FEF                     INDF0           equ	4079	;# 
   520   000FF0                     INTCON3         equ	4080	;# 
   521   000FF1                     INTCON2         equ	4081	;# 
   522   000FF2                     INTCON          equ	4082	;# 
   523   000FF3                     PROD            equ	4083	;# 
   524   000FF3                     PRODL           equ	4083	;# 
   525   000FF4                     PRODH           equ	4084	;# 
   526   000FF5                     TABLAT          equ	4085	;# 
   527   000FF6                     TBLPTR          equ	4086	;# 
   528   000FF6                     TBLPTRL         equ	4086	;# 
   529   000FF7                     TBLPTRH         equ	4087	;# 
   530   000FF8                     TBLPTRU         equ	4088	;# 
   531   000FF9                     PCLAT           equ	4089	;# 
   532   000FF9                     PC              equ	4089	;# 
   533   000FF9                     PCL             equ	4089	;# 
   534   000FFA                     PCLATH          equ	4090	;# 
   535   000FFB                     PCLATU          equ	4091	;# 
   536   000FFC                     STKPTR          equ	4092	;# 
   537   000FFD                     TOS             equ	4093	;# 
   538   000FFD                     TOSL            equ	4093	;# 
   539   000FFE                     TOSH            equ	4094	;# 
   540   000FFF                     TOSU            equ	4095	;# 
   541   000F77                     SSPMSK          equ	3959	;# 
   542   000F78                     SLRCON          equ	3960	;# 
   543   000F79                     CM2CON1         equ	3961	;# 
   544   000F7A                     CM2CON0         equ	3962	;# 
   545   000F7B                     CM1CON0         equ	3963	;# 
   546   000F7C                     WPUB            equ	3964	;# 
   547   000F7D                     IOCB            equ	3965	;# 
   548   000F7E                     ANSEL           equ	3966	;# 
   549   000F7F                     ANSELH          equ	3967	;# 
   550   000F80                     PORTA           equ	3968	;# 
   551   000F81                     PORTB           equ	3969	;# 
   552   000F82                     PORTC           equ	3970	;# 
   553   000F83                     PORTD           equ	3971	;# 
   554   000F84                     PORTE           equ	3972	;# 
   555   000F89                     LATA            equ	3977	;# 
   556   000F8A                     LATB            equ	3978	;# 
   557   000F8B                     LATC            equ	3979	;# 
   558   000F8C                     LATD            equ	3980	;# 
   559   000F8D                     LATE            equ	3981	;# 
   560   000F92                     TRISA           equ	3986	;# 
   561   000F92                     DDRA            equ	3986	;# 
   562   000F93                     TRISB           equ	3987	;# 
   563   000F93                     DDRB            equ	3987	;# 
   564   000F94                     TRISC           equ	3988	;# 
   565   000F94                     DDRC            equ	3988	;# 
   566   000F95                     TRISD           equ	3989	;# 
   567   000F95                     DDRD            equ	3989	;# 
   568   000F96                     TRISE           equ	3990	;# 
   569   000F96                     DDRE            equ	3990	;# 
   570   000F9B                     OSCTUNE         equ	3995	;# 
   571   000F9D                     PIE1            equ	3997	;# 
   572   000F9E                     PIR1            equ	3998	;# 
   573   000F9F                     IPR1            equ	3999	;# 
   574   000FA0                     PIE2            equ	4000	;# 
   575   000FA1                     PIR2            equ	4001	;# 
   576   000FA2                     IPR2            equ	4002	;# 
   577   000FA6                     EECON1          equ	4006	;# 
   578   000FA7                     EECON2          equ	4007	;# 
   579   000FA8                     EEDATA          equ	4008	;# 
   580   000FA9                     EEADR           equ	4009	;# 
   581   000FAA                     EEADRH          equ	4010	;# 
   582   000FAB                     RCSTA           equ	4011	;# 
   583   000FAB                     RCSTA1          equ	4011	;# 
   584   000FAC                     TXSTA           equ	4012	;# 
   585   000FAC                     TXSTA1          equ	4012	;# 
   586   000FAD                     TXREG           equ	4013	;# 
   587   000FAD                     TXREG1          equ	4013	;# 
   588   000FAE                     RCREG           equ	4014	;# 
   589   000FAE                     RCREG1          equ	4014	;# 
   590   000FAF                     SPBRG           equ	4015	;# 
   591   000FAF                     SPBRG1          equ	4015	;# 
   592   000FB0                     SPBRGH          equ	4016	;# 
   593   000FB1                     T3CON           equ	4017	;# 
   594   000FB2                     TMR3            equ	4018	;# 
   595   000FB2                     TMR3L           equ	4018	;# 
   596   000FB3                     TMR3H           equ	4019	;# 
   597   000FB4                     CVRCON2         equ	4020	;# 
   598   000FB5                     CVRCON          equ	4021	;# 
   599   000FB6                     ECCP1AS         equ	4022	;# 
   600   000FB7                     PWM1CON         equ	4023	;# 
   601   000FB8                     BAUDCON         equ	4024	;# 
   602   000FB8                     BAUDCTL         equ	4024	;# 
   603   000FB9                     PSTRCON         equ	4025	;# 
   604   000FBA                     CCP2CON         equ	4026	;# 
   605   000FBB                     CCPR2           equ	4027	;# 
   606   000FBB                     CCPR2L          equ	4027	;# 
   607   000FBC                     CCPR2H          equ	4028	;# 
   608   000FBD                     CCP1CON         equ	4029	;# 
   609   000FBE                     CCPR1           equ	4030	;# 
   610   000FBE                     CCPR1L          equ	4030	;# 
   611   000FBF                     CCPR1H          equ	4031	;# 
   612   000FC0                     ADCON2          equ	4032	;# 
   613   000FC1                     ADCON1          equ	4033	;# 
   614   000FC2                     ADCON0          equ	4034	;# 
   615   000FC3                     ADRES           equ	4035	;# 
   616   000FC3                     ADRESL          equ	4035	;# 
   617   000FC4                     ADRESH          equ	4036	;# 
   618   000FC5                     SSPCON2         equ	4037	;# 
   619   000FC6                     SSPCON1         equ	4038	;# 
   620   000FC7                     SSPSTAT         equ	4039	;# 
   621   000FC8                     SSPADD          equ	4040	;# 
   622   000FC9                     SSPBUF          equ	4041	;# 
   623   000FCA                     T2CON           equ	4042	;# 
   624   000FCB                     PR2             equ	4043	;# 
   625   000FCB                     MEMCON          equ	4043	;# 
   626   000FCC                     TMR2            equ	4044	;# 
   627   000FCD                     T1CON           equ	4045	;# 
   628   000FCE                     TMR1            equ	4046	;# 
   629   000FCE                     TMR1L           equ	4046	;# 
   630   000FCF                     TMR1H           equ	4047	;# 
   631   000FD0                     RCON            equ	4048	;# 
   632   000FD1                     WDTCON          equ	4049	;# 
   633   000FD2                     HLVDCON         equ	4050	;# 
   634   000FD2                     LVDCON          equ	4050	;# 
   635   000FD3                     OSCCON          equ	4051	;# 
   636   000FD5                     T0CON           equ	4053	;# 
   637   000FD6                     TMR0            equ	4054	;# 
   638   000FD6                     TMR0L           equ	4054	;# 
   639   000FD7                     TMR0H           equ	4055	;# 
   640   000FD8                     STATUS          equ	4056	;# 
   641   000FD9                     FSR2            equ	4057	;# 
   642   000FD9                     FSR2L           equ	4057	;# 
   643   000FDA                     FSR2H           equ	4058	;# 
   644   000FDB                     PLUSW2          equ	4059	;# 
   645   000FDC                     PREINC2         equ	4060	;# 
   646   000FDD                     POSTDEC2        equ	4061	;# 
   647   000FDE                     POSTINC2        equ	4062	;# 
   648   000FDF                     INDF2           equ	4063	;# 
   649   000FE0                     BSR             equ	4064	;# 
   650   000FE1                     FSR1            equ	4065	;# 
   651   000FE1                     FSR1L           equ	4065	;# 
   652   000FE2                     FSR1H           equ	4066	;# 
   653   000FE3                     PLUSW1          equ	4067	;# 
   654   000FE4                     PREINC1         equ	4068	;# 
   655   000FE5                     POSTDEC1        equ	4069	;# 
   656   000FE6                     POSTINC1        equ	4070	;# 
   657   000FE7                     INDF1           equ	4071	;# 
   658   000FE8                     WREG            equ	4072	;# 
   659   000FE9                     FSR0            equ	4073	;# 
   660   000FE9                     FSR0L           equ	4073	;# 
   661   000FEA                     FSR0H           equ	4074	;# 
   662   000FEB                     PLUSW0          equ	4075	;# 
   663   000FEC                     PREINC0         equ	4076	;# 
   664   000FED                     POSTDEC0        equ	4077	;# 
   665   000FEE                     POSTINC0        equ	4078	;# 
   666   000FEF                     INDF0           equ	4079	;# 
   667   000FF0                     INTCON3         equ	4080	;# 
   668   000FF1                     INTCON2         equ	4081	;# 
   669   000FF2                     INTCON          equ	4082	;# 
   670   000FF3                     PROD            equ	4083	;# 
   671   000FF3                     PRODL           equ	4083	;# 
   672   000FF4                     PRODH           equ	4084	;# 
   673   000FF5                     TABLAT          equ	4085	;# 
   674   000FF6                     TBLPTR          equ	4086	;# 
   675   000FF6                     TBLPTRL         equ	4086	;# 
   676   000FF7                     TBLPTRH         equ	4087	;# 
   677   000FF8                     TBLPTRU         equ	4088	;# 
   678   000FF9                     PCLAT           equ	4089	;# 
   679   000FF9                     PC              equ	4089	;# 
   680   000FF9                     PCL             equ	4089	;# 
   681   000FFA                     PCLATH          equ	4090	;# 
   682   000FFB                     PCLATU          equ	4091	;# 
   683   000FFC                     STKPTR          equ	4092	;# 
   684   000FFD                     TOS             equ	4093	;# 
   685   000FFD                     TOSL            equ	4093	;# 
   686   000FFE                     TOSH            equ	4094	;# 
   687   000FFF                     TOSU            equ	4095	;# 
   688   000F77                     SSPMSK          equ	3959	;# 
   689   000F78                     SLRCON          equ	3960	;# 
   690   000F79                     CM2CON1         equ	3961	;# 
   691   000F7A                     CM2CON0         equ	3962	;# 
   692   000F7B                     CM1CON0         equ	3963	;# 
   693   000F7C                     WPUB            equ	3964	;# 
   694   000F7D                     IOCB            equ	3965	;# 
   695   000F7E                     ANSEL           equ	3966	;# 
   696   000F7F                     ANSELH          equ	3967	;# 
   697   000F80                     PORTA           equ	3968	;# 
   698   000F81                     PORTB           equ	3969	;# 
   699   000F82                     PORTC           equ	3970	;# 
   700   000F83                     PORTD           equ	3971	;# 
   701   000F84                     PORTE           equ	3972	;# 
   702   000F89                     LATA            equ	3977	;# 
   703   000F8A                     LATB            equ	3978	;# 
   704   000F8B                     LATC            equ	3979	;# 
   705   000F8C                     LATD            equ	3980	;# 
   706   000F8D                     LATE            equ	3981	;# 
   707   000F92                     TRISA           equ	3986	;# 
   708   000F92                     DDRA            equ	3986	;# 
   709   000F93                     TRISB           equ	3987	;# 
   710   000F93                     DDRB            equ	3987	;# 
   711   000F94                     TRISC           equ	3988	;# 
   712   000F94                     DDRC            equ	3988	;# 
   713   000F95                     TRISD           equ	3989	;# 
   714   000F95                     DDRD            equ	3989	;# 
   715   000F96                     TRISE           equ	3990	;# 
   716   000F96                     DDRE            equ	3990	;# 
   717   000F9B                     OSCTUNE         equ	3995	;# 
   718   000F9D                     PIE1            equ	3997	;# 
   719   000F9E                     PIR1            equ	3998	;# 
   720   000F9F                     IPR1            equ	3999	;# 
   721   000FA0                     PIE2            equ	4000	;# 
   722   000FA1                     PIR2            equ	4001	;# 
   723   000FA2                     IPR2            equ	4002	;# 
   724   000FA6                     EECON1          equ	4006	;# 
   725   000FA7                     EECON2          equ	4007	;# 
   726   000FA8                     EEDATA          equ	4008	;# 
   727   000FA9                     EEADR           equ	4009	;# 
   728   000FAA                     EEADRH          equ	4010	;# 
   729   000FAB                     RCSTA           equ	4011	;# 
   730   000FAB                     RCSTA1          equ	4011	;# 
   731   000FAC                     TXSTA           equ	4012	;# 
   732   000FAC                     TXSTA1          equ	4012	;# 
   733   000FAD                     TXREG           equ	4013	;# 
   734   000FAD                     TXREG1          equ	4013	;# 
   735   000FAE                     RCREG           equ	4014	;# 
   736   000FAE                     RCREG1          equ	4014	;# 
   737   000FAF                     SPBRG           equ	4015	;# 
   738   000FAF                     SPBRG1          equ	4015	;# 
   739   000FB0                     SPBRGH          equ	4016	;# 
   740   000FB1                     T3CON           equ	4017	;# 
   741   000FB2                     TMR3            equ	4018	;# 
   742   000FB2                     TMR3L           equ	4018	;# 
   743   000FB3                     TMR3H           equ	4019	;# 
   744   000FB4                     CVRCON2         equ	4020	;# 
   745   000FB5                     CVRCON          equ	4021	;# 
   746   000FB6                     ECCP1AS         equ	4022	;# 
   747   000FB7                     PWM1CON         equ	4023	;# 
   748   000FB8                     BAUDCON         equ	4024	;# 
   749   000FB8                     BAUDCTL         equ	4024	;# 
   750   000FB9                     PSTRCON         equ	4025	;# 
   751   000FBA                     CCP2CON         equ	4026	;# 
   752   000FBB                     CCPR2           equ	4027	;# 
   753   000FBB                     CCPR2L          equ	4027	;# 
   754   000FBC                     CCPR2H          equ	4028	;# 
   755   000FBD                     CCP1CON         equ	4029	;# 
   756   000FBE                     CCPR1           equ	4030	;# 
   757   000FBE                     CCPR1L          equ	4030	;# 
   758   000FBF                     CCPR1H          equ	4031	;# 
   759   000FC0                     ADCON2          equ	4032	;# 
   760   000FC1                     ADCON1          equ	4033	;# 
   761   000FC2                     ADCON0          equ	4034	;# 
   762   000FC3                     ADRES           equ	4035	;# 
   763   000FC3                     ADRESL          equ	4035	;# 
   764   000FC4                     ADRESH          equ	4036	;# 
   765   000FC5                     SSPCON2         equ	4037	;# 
   766   000FC6                     SSPCON1         equ	4038	;# 
   767   000FC7                     SSPSTAT         equ	4039	;# 
   768   000FC8                     SSPADD          equ	4040	;# 
   769   000FC9                     SSPBUF          equ	4041	;# 
   770   000FCA                     T2CON           equ	4042	;# 
   771   000FCB                     PR2             equ	4043	;# 
   772   000FCB                     MEMCON          equ	4043	;# 
   773   000FCC                     TMR2            equ	4044	;# 
   774   000FCD                     T1CON           equ	4045	;# 
   775   000FCE                     TMR1            equ	4046	;# 
   776   000FCE                     TMR1L           equ	4046	;# 
   777   000FCF                     TMR1H           equ	4047	;# 
   778   000FD0                     RCON            equ	4048	;# 
   779   000FD1                     WDTCON          equ	4049	;# 
   780   000FD2                     HLVDCON         equ	4050	;# 
   781   000FD2                     LVDCON          equ	4050	;# 
   782   000FD3                     OSCCON          equ	4051	;# 
   783   000FD5                     T0CON           equ	4053	;# 
   784   000FD6                     TMR0            equ	4054	;# 
   785   000FD6                     TMR0L           equ	4054	;# 
   786   000FD7                     TMR0H           equ	4055	;# 
   787   000FD8                     STATUS          equ	4056	;# 
   788   000FD9                     FSR2            equ	4057	;# 
   789   000FD9                     FSR2L           equ	4057	;# 
   790   000FDA                     FSR2H           equ	4058	;# 
   791   000FDB                     PLUSW2          equ	4059	;# 
   792   000FDC                     PREINC2         equ	4060	;# 
   793   000FDD                     POSTDEC2        equ	4061	;# 
   794   000FDE                     POSTINC2        equ	4062	;# 
   795   000FDF                     INDF2           equ	4063	;# 
   796   000FE0                     BSR             equ	4064	;# 
   797   000FE1                     FSR1            equ	4065	;# 
   798   000FE1                     FSR1L           equ	4065	;# 
   799   000FE2                     FSR1H           equ	4066	;# 
   800   000FE3                     PLUSW1          equ	4067	;# 
   801   000FE4                     PREINC1         equ	4068	;# 
   802   000FE5                     POSTDEC1        equ	4069	;# 
   803   000FE6                     POSTINC1        equ	4070	;# 
   804   000FE7                     INDF1           equ	4071	;# 
   805   000FE8                     WREG            equ	4072	;# 
   806   000FE9                     FSR0            equ	4073	;# 
   807   000FE9                     FSR0L           equ	4073	;# 
   808   000FEA                     FSR0H           equ	4074	;# 
   809   000FEB                     PLUSW0          equ	4075	;# 
   810   000FEC                     PREINC0         equ	4076	;# 
   811   000FED                     POSTDEC0        equ	4077	;# 
   812   000FEE                     POSTINC0        equ	4078	;# 
   813   000FEF                     INDF0           equ	4079	;# 
   814   000FF0                     INTCON3         equ	4080	;# 
   815   000FF1                     INTCON2         equ	4081	;# 
   816   000FF2                     INTCON          equ	4082	;# 
   817   000FF3                     PROD            equ	4083	;# 
   818   000FF3                     PRODL           equ	4083	;# 
   819   000FF4                     PRODH           equ	4084	;# 
   820   000FF5                     TABLAT          equ	4085	;# 
   821   000FF6                     TBLPTR          equ	4086	;# 
   822   000FF6                     TBLPTRL         equ	4086	;# 
   823   000FF7                     TBLPTRH         equ	4087	;# 
   824   000FF8                     TBLPTRU         equ	4088	;# 
   825   000FF9                     PCLAT           equ	4089	;# 
   826   000FF9                     PC              equ	4089	;# 
   827   000FF9                     PCL             equ	4089	;# 
   828   000FFA                     PCLATH          equ	4090	;# 
   829   000FFB                     PCLATU          equ	4091	;# 
   830   000FFC                     STKPTR          equ	4092	;# 
   831   000FFD                     TOS             equ	4093	;# 
   832   000FFD                     TOSL            equ	4093	;# 
   833   000FFE                     TOSH            equ	4094	;# 
   834   000FFF                     TOSU            equ	4095	;# 
   835   000F77                     SSPMSK          equ	3959	;# 
   836   000F78                     SLRCON          equ	3960	;# 
   837   000F79                     CM2CON1         equ	3961	;# 
   838   000F7A                     CM2CON0         equ	3962	;# 
   839   000F7B                     CM1CON0         equ	3963	;# 
   840   000F7C                     WPUB            equ	3964	;# 
   841   000F7D                     IOCB            equ	3965	;# 
   842   000F7E                     ANSEL           equ	3966	;# 
   843   000F7F                     ANSELH          equ	3967	;# 
   844   000F80                     PORTA           equ	3968	;# 
   845   000F81                     PORTB           equ	3969	;# 
   846   000F82                     PORTC           equ	3970	;# 
   847   000F83                     PORTD           equ	3971	;# 
   848   000F84                     PORTE           equ	3972	;# 
   849   000F89                     LATA            equ	3977	;# 
   850   000F8A                     LATB            equ	3978	;# 
   851   000F8B                     LATC            equ	3979	;# 
   852   000F8C                     LATD            equ	3980	;# 
   853   000F8D                     LATE            equ	3981	;# 
   854   000F92                     TRISA           equ	3986	;# 
   855   000F92                     DDRA            equ	3986	;# 
   856   000F93                     TRISB           equ	3987	;# 
   857   000F93                     DDRB            equ	3987	;# 
   858   000F94                     TRISC           equ	3988	;# 
   859   000F94                     DDRC            equ	3988	;# 
   860   000F95                     TRISD           equ	3989	;# 
   861   000F95                     DDRD            equ	3989	;# 
   862   000F96                     TRISE           equ	3990	;# 
   863   000F96                     DDRE            equ	3990	;# 
   864   000F9B                     OSCTUNE         equ	3995	;# 
   865   000F9D                     PIE1            equ	3997	;# 
   866   000F9E                     PIR1            equ	3998	;# 
   867   000F9F                     IPR1            equ	3999	;# 
   868   000FA0                     PIE2            equ	4000	;# 
   869   000FA1                     PIR2            equ	4001	;# 
   870   000FA2                     IPR2            equ	4002	;# 
   871   000FA6                     EECON1          equ	4006	;# 
   872   000FA7                     EECON2          equ	4007	;# 
   873   000FA8                     EEDATA          equ	4008	;# 
   874   000FA9                     EEADR           equ	4009	;# 
   875   000FAA                     EEADRH          equ	4010	;# 
   876   000FAB                     RCSTA           equ	4011	;# 
   877   000FAB                     RCSTA1          equ	4011	;# 
   878   000FAC                     TXSTA           equ	4012	;# 
   879   000FAC                     TXSTA1          equ	4012	;# 
   880   000FAD                     TXREG           equ	4013	;# 
   881   000FAD                     TXREG1          equ	4013	;# 
   882   000FAE                     RCREG           equ	4014	;# 
   883   000FAE                     RCREG1          equ	4014	;# 
   884   000FAF                     SPBRG           equ	4015	;# 
   885   000FAF                     SPBRG1          equ	4015	;# 
   886   000FB0                     SPBRGH          equ	4016	;# 
   887   000FB1                     T3CON           equ	4017	;# 
   888   000FB2                     TMR3            equ	4018	;# 
   889   000FB2                     TMR3L           equ	4018	;# 
   890   000FB3                     TMR3H           equ	4019	;# 
   891   000FB4                     CVRCON2         equ	4020	;# 
   892   000FB5                     CVRCON          equ	4021	;# 
   893   000FB6                     ECCP1AS         equ	4022	;# 
   894   000FB7                     PWM1CON         equ	4023	;# 
   895   000FB8                     BAUDCON         equ	4024	;# 
   896   000FB8                     BAUDCTL         equ	4024	;# 
   897   000FB9                     PSTRCON         equ	4025	;# 
   898   000FBA                     CCP2CON         equ	4026	;# 
   899   000FBB                     CCPR2           equ	4027	;# 
   900   000FBB                     CCPR2L          equ	4027	;# 
   901   000FBC                     CCPR2H          equ	4028	;# 
   902   000FBD                     CCP1CON         equ	4029	;# 
   903   000FBE                     CCPR1           equ	4030	;# 
   904   000FBE                     CCPR1L          equ	4030	;# 
   905   000FBF                     CCPR1H          equ	4031	;# 
   906   000FC0                     ADCON2          equ	4032	;# 
   907   000FC1                     ADCON1          equ	4033	;# 
   908   000FC2                     ADCON0          equ	4034	;# 
   909   000FC3                     ADRES           equ	4035	;# 
   910   000FC3                     ADRESL          equ	4035	;# 
   911   000FC4                     ADRESH          equ	4036	;# 
   912   000FC5                     SSPCON2         equ	4037	;# 
   913   000FC6                     SSPCON1         equ	4038	;# 
   914   000FC7                     SSPSTAT         equ	4039	;# 
   915   000FC8                     SSPADD          equ	4040	;# 
   916   000FC9                     SSPBUF          equ	4041	;# 
   917   000FCA                     T2CON           equ	4042	;# 
   918   000FCB                     PR2             equ	4043	;# 
   919   000FCB                     MEMCON          equ	4043	;# 
   920   000FCC                     TMR2            equ	4044	;# 
   921   000FCD                     T1CON           equ	4045	;# 
   922   000FCE                     TMR1            equ	4046	;# 
   923   000FCE                     TMR1L           equ	4046	;# 
   924   000FCF                     TMR1H           equ	4047	;# 
   925   000FD0                     RCON            equ	4048	;# 
   926   000FD1                     WDTCON          equ	4049	;# 
   927   000FD2                     HLVDCON         equ	4050	;# 
   928   000FD2                     LVDCON          equ	4050	;# 
   929   000FD3                     OSCCON          equ	4051	;# 
   930   000FD5                     T0CON           equ	4053	;# 
   931   000FD6                     TMR0            equ	4054	;# 
   932   000FD6                     TMR0L           equ	4054	;# 
   933   000FD7                     TMR0H           equ	4055	;# 
   934   000FD8                     STATUS          equ	4056	;# 
   935   000FD9                     FSR2            equ	4057	;# 
   936   000FD9                     FSR2L           equ	4057	;# 
   937   000FDA                     FSR2H           equ	4058	;# 
   938   000FDB                     PLUSW2          equ	4059	;# 
   939   000FDC                     PREINC2         equ	4060	;# 
   940   000FDD                     POSTDEC2        equ	4061	;# 
   941   000FDE                     POSTINC2        equ	4062	;# 
   942   000FDF                     INDF2           equ	4063	;# 
   943   000FE0                     BSR             equ	4064	;# 
   944   000FE1                     FSR1            equ	4065	;# 
   945   000FE1                     FSR1L           equ	4065	;# 
   946   000FE2                     FSR1H           equ	4066	;# 
   947   000FE3                     PLUSW1          equ	4067	;# 
   948   000FE4                     PREINC1         equ	4068	;# 
   949   000FE5                     POSTDEC1        equ	4069	;# 
   950   000FE6                     POSTINC1        equ	4070	;# 
   951   000FE7                     INDF1           equ	4071	;# 
   952   000FE8                     WREG            equ	4072	;# 
   953   000FE9                     FSR0            equ	4073	;# 
   954   000FE9                     FSR0L           equ	4073	;# 
   955   000FEA                     FSR0H           equ	4074	;# 
   956   000FEB                     PLUSW0          equ	4075	;# 
   957   000FEC                     PREINC0         equ	4076	;# 
   958   000FED                     POSTDEC0        equ	4077	;# 
   959   000FEE                     POSTINC0        equ	4078	;# 
   960   000FEF                     INDF0           equ	4079	;# 
   961   000FF0                     INTCON3         equ	4080	;# 
   962   000FF1                     INTCON2         equ	4081	;# 
   963   000FF2                     INTCON          equ	4082	;# 
   964   000FF3                     PROD            equ	4083	;# 
   965   000FF3                     PRODL           equ	4083	;# 
   966   000FF4                     PRODH           equ	4084	;# 
   967   000FF5                     TABLAT          equ	4085	;# 
   968   000FF6                     TBLPTR          equ	4086	;# 
   969   000FF6                     TBLPTRL         equ	4086	;# 
   970   000FF7                     TBLPTRH         equ	4087	;# 
   971   000FF8                     TBLPTRU         equ	4088	;# 
   972   000FF9                     PCLAT           equ	4089	;# 
   973   000FF9                     PC              equ	4089	;# 
   974   000FF9                     PCL             equ	4089	;# 
   975   000FFA                     PCLATH          equ	4090	;# 
   976   000FFB                     PCLATU          equ	4091	;# 
   977   000FFC                     STKPTR          equ	4092	;# 
   978   000FFD                     TOS             equ	4093	;# 
   979   000FFD                     TOSL            equ	4093	;# 
   980   000FFE                     TOSH            equ	4094	;# 
   981   000FFF                     TOSU            equ	4095	;# 
   982   000F77                     SSPMSK          equ	3959	;# 
   983   000F78                     SLRCON          equ	3960	;# 
   984   000F79                     CM2CON1         equ	3961	;# 
   985   000F7A                     CM2CON0         equ	3962	;# 
   986   000F7B                     CM1CON0         equ	3963	;# 
   987   000F7C                     WPUB            equ	3964	;# 
   988   000F7D                     IOCB            equ	3965	;# 
   989   000F7E                     ANSEL           equ	3966	;# 
   990   000F7F                     ANSELH          equ	3967	;# 
   991   000F80                     PORTA           equ	3968	;# 
   992   000F81                     PORTB           equ	3969	;# 
   993   000F82                     PORTC           equ	3970	;# 
   994   000F83                     PORTD           equ	3971	;# 
   995   000F84                     PORTE           equ	3972	;# 
   996   000F89                     LATA            equ	3977	;# 
   997   000F8A                     LATB            equ	3978	;# 
   998   000F8B                     LATC            equ	3979	;# 
   999   000F8C                     LATD            equ	3980	;# 
  1000   000F8D                     LATE            equ	3981	;# 
  1001   000F92                     TRISA           equ	3986	;# 
  1002   000F92                     DDRA            equ	3986	;# 
  1003   000F93                     TRISB           equ	3987	;# 
  1004   000F93                     DDRB            equ	3987	;# 
  1005   000F94                     TRISC           equ	3988	;# 
  1006   000F94                     DDRC            equ	3988	;# 
  1007   000F95                     TRISD           equ	3989	;# 
  1008   000F95                     DDRD            equ	3989	;# 
  1009   000F96                     TRISE           equ	3990	;# 
  1010   000F96                     DDRE            equ	3990	;# 
  1011   000F9B                     OSCTUNE         equ	3995	;# 
  1012   000F9D                     PIE1            equ	3997	;# 
  1013   000F9E                     PIR1            equ	3998	;# 
  1014   000F9F                     IPR1            equ	3999	;# 
  1015   000FA0                     PIE2            equ	4000	;# 
  1016   000FA1                     PIR2            equ	4001	;# 
  1017   000FA2                     IPR2            equ	4002	;# 
  1018   000FA6                     EECON1          equ	4006	;# 
  1019   000FA7                     EECON2          equ	4007	;# 
  1020   000FA8                     EEDATA          equ	4008	;# 
  1021   000FA9                     EEADR           equ	4009	;# 
  1022   000FAA                     EEADRH          equ	4010	;# 
  1023   000FAB                     RCSTA           equ	4011	;# 
  1024   000FAB                     RCSTA1          equ	4011	;# 
  1025   000FAC                     TXSTA           equ	4012	;# 
  1026   000FAC                     TXSTA1          equ	4012	;# 
  1027   000FAD                     TXREG           equ	4013	;# 
  1028   000FAD                     TXREG1          equ	4013	;# 
  1029   000FAE                     RCREG           equ	4014	;# 
  1030   000FAE                     RCREG1          equ	4014	;# 
  1031   000FAF                     SPBRG           equ	4015	;# 
  1032   000FAF                     SPBRG1          equ	4015	;# 
  1033   000FB0                     SPBRGH          equ	4016	;# 
  1034   000FB1                     T3CON           equ	4017	;# 
  1035   000FB2                     TMR3            equ	4018	;# 
  1036   000FB2                     TMR3L           equ	4018	;# 
  1037   000FB3                     TMR3H           equ	4019	;# 
  1038   000FB4                     CVRCON2         equ	4020	;# 
  1039   000FB5                     CVRCON          equ	4021	;# 
  1040   000FB6                     ECCP1AS         equ	4022	;# 
  1041   000FB7                     PWM1CON         equ	4023	;# 
  1042   000FB8                     BAUDCON         equ	4024	;# 
  1043   000FB8                     BAUDCTL         equ	4024	;# 
  1044   000FB9                     PSTRCON         equ	4025	;# 
  1045   000FBA                     CCP2CON         equ	4026	;# 
  1046   000FBB                     CCPR2           equ	4027	;# 
  1047   000FBB                     CCPR2L          equ	4027	;# 
  1048   000FBC                     CCPR2H          equ	4028	;# 
  1049   000FBD                     CCP1CON         equ	4029	;# 
  1050   000FBE                     CCPR1           equ	4030	;# 
  1051   000FBE                     CCPR1L          equ	4030	;# 
  1052   000FBF                     CCPR1H          equ	4031	;# 
  1053   000FC0                     ADCON2          equ	4032	;# 
  1054   000FC1                     ADCON1          equ	4033	;# 
  1055   000FC2                     ADCON0          equ	4034	;# 
  1056   000FC3                     ADRES           equ	4035	;# 
  1057   000FC3                     ADRESL          equ	4035	;# 
  1058   000FC4                     ADRESH          equ	4036	;# 
  1059   000FC5                     SSPCON2         equ	4037	;# 
  1060   000FC6                     SSPCON1         equ	4038	;# 
  1061   000FC7                     SSPSTAT         equ	4039	;# 
  1062   000FC8                     SSPADD          equ	4040	;# 
  1063   000FC9                     SSPBUF          equ	4041	;# 
  1064   000FCA                     T2CON           equ	4042	;# 
  1065   000FCB                     PR2             equ	4043	;# 
  1066   000FCB                     MEMCON          equ	4043	;# 
  1067   000FCC                     TMR2            equ	4044	;# 
  1068   000FCD                     T1CON           equ	4045	;# 
  1069   000FCE                     TMR1            equ	4046	;# 
  1070   000FCE                     TMR1L           equ	4046	;# 
  1071   000FCF                     TMR1H           equ	4047	;# 
  1072   000FD0                     RCON            equ	4048	;# 
  1073   000FD1                     WDTCON          equ	4049	;# 
  1074   000FD2                     HLVDCON         equ	4050	;# 
  1075   000FD2                     LVDCON          equ	4050	;# 
  1076   000FD3                     OSCCON          equ	4051	;# 
  1077   000FD5                     T0CON           equ	4053	;# 
  1078   000FD6                     TMR0            equ	4054	;# 
  1079   000FD6                     TMR0L           equ	4054	;# 
  1080   000FD7                     TMR0H           equ	4055	;# 
  1081   000FD8                     STATUS          equ	4056	;# 
  1082   000FD9                     FSR2            equ	4057	;# 
  1083   000FD9                     FSR2L           equ	4057	;# 
  1084   000FDA                     FSR2H           equ	4058	;# 
  1085   000FDB                     PLUSW2          equ	4059	;# 
  1086   000FDC                     PREINC2         equ	4060	;# 
  1087   000FDD                     POSTDEC2        equ	4061	;# 
  1088   000FDE                     POSTINC2        equ	4062	;# 
  1089   000FDF                     INDF2           equ	4063	;# 
  1090   000FE0                     BSR             equ	4064	;# 
  1091   000FE1                     FSR1            equ	4065	;# 
  1092   000FE1                     FSR1L           equ	4065	;# 
  1093   000FE2                     FSR1H           equ	4066	;# 
  1094   000FE3                     PLUSW1          equ	4067	;# 
  1095   000FE4                     PREINC1         equ	4068	;# 
  1096   000FE5                     POSTDEC1        equ	4069	;# 
  1097   000FE6                     POSTINC1        equ	4070	;# 
  1098   000FE7                     INDF1           equ	4071	;# 
  1099   000FE8                     WREG            equ	4072	;# 
  1100   000FE9                     FSR0            equ	4073	;# 
  1101   000FE9                     FSR0L           equ	4073	;# 
  1102   000FEA                     FSR0H           equ	4074	;# 
  1103   000FEB                     PLUSW0          equ	4075	;# 
  1104   000FEC                     PREINC0         equ	4076	;# 
  1105   000FED                     POSTDEC0        equ	4077	;# 
  1106   000FEE                     POSTINC0        equ	4078	;# 
  1107   000FEF                     INDF0           equ	4079	;# 
  1108   000FF0                     INTCON3         equ	4080	;# 
  1109   000FF1                     INTCON2         equ	4081	;# 
  1110   000FF2                     INTCON          equ	4082	;# 
  1111   000FF3                     PROD            equ	4083	;# 
  1112   000FF3                     PRODL           equ	4083	;# 
  1113   000FF4                     PRODH           equ	4084	;# 
  1114   000FF5                     TABLAT          equ	4085	;# 
  1115   000FF6                     TBLPTR          equ	4086	;# 
  1116   000FF6                     TBLPTRL         equ	4086	;# 
  1117   000FF7                     TBLPTRH         equ	4087	;# 
  1118   000FF8                     TBLPTRU         equ	4088	;# 
  1119   000FF9                     PCLAT           equ	4089	;# 
  1120   000FF9                     PC              equ	4089	;# 
  1121   000FF9                     PCL             equ	4089	;# 
  1122   000FFA                     PCLATH          equ	4090	;# 
  1123   000FFB                     PCLATU          equ	4091	;# 
  1124   000FFC                     STKPTR          equ	4092	;# 
  1125   000FFD                     TOS             equ	4093	;# 
  1126   000FFD                     TOSL            equ	4093	;# 
  1127   000FFE                     TOSH            equ	4094	;# 
  1128   000FFF                     TOSU            equ	4095	;# 
  1129   000F77                     SSPMSK          equ	3959	;# 
  1130   000F78                     SLRCON          equ	3960	;# 
  1131   000F79                     CM2CON1         equ	3961	;# 
  1132   000F7A                     CM2CON0         equ	3962	;# 
  1133   000F7B                     CM1CON0         equ	3963	;# 
  1134   000F7C                     WPUB            equ	3964	;# 
  1135   000F7D                     IOCB            equ	3965	;# 
  1136   000F7E                     ANSEL           equ	3966	;# 
  1137   000F7F                     ANSELH          equ	3967	;# 
  1138   000F80                     PORTA           equ	3968	;# 
  1139   000F81                     PORTB           equ	3969	;# 
  1140   000F82                     PORTC           equ	3970	;# 
  1141   000F83                     PORTD           equ	3971	;# 
  1142   000F84                     PORTE           equ	3972	;# 
  1143   000F89                     LATA            equ	3977	;# 
  1144   000F8A                     LATB            equ	3978	;# 
  1145   000F8B                     LATC            equ	3979	;# 
  1146   000F8C                     LATD            equ	3980	;# 
  1147   000F8D                     LATE            equ	3981	;# 
  1148   000F92                     TRISA           equ	3986	;# 
  1149   000F92                     DDRA            equ	3986	;# 
  1150   000F93                     TRISB           equ	3987	;# 
  1151   000F93                     DDRB            equ	3987	;# 
  1152   000F94                     TRISC           equ	3988	;# 
  1153   000F94                     DDRC            equ	3988	;# 
  1154   000F95                     TRISD           equ	3989	;# 
  1155   000F95                     DDRD            equ	3989	;# 
  1156   000F96                     TRISE           equ	3990	;# 
  1157   000F96                     DDRE            equ	3990	;# 
  1158   000F9B                     OSCTUNE         equ	3995	;# 
  1159   000F9D                     PIE1            equ	3997	;# 
  1160   000F9E                     PIR1            equ	3998	;# 
  1161   000F9F                     IPR1            equ	3999	;# 
  1162   000FA0                     PIE2            equ	4000	;# 
  1163   000FA1                     PIR2            equ	4001	;# 
  1164   000FA2                     IPR2            equ	4002	;# 
  1165   000FA6                     EECON1          equ	4006	;# 
  1166   000FA7                     EECON2          equ	4007	;# 
  1167   000FA8                     EEDATA          equ	4008	;# 
  1168   000FA9                     EEADR           equ	4009	;# 
  1169   000FAA                     EEADRH          equ	4010	;# 
  1170   000FAB                     RCSTA           equ	4011	;# 
  1171   000FAB                     RCSTA1          equ	4011	;# 
  1172   000FAC                     TXSTA           equ	4012	;# 
  1173   000FAC                     TXSTA1          equ	4012	;# 
  1174   000FAD                     TXREG           equ	4013	;# 
  1175   000FAD                     TXREG1          equ	4013	;# 
  1176   000FAE                     RCREG           equ	4014	;# 
  1177   000FAE                     RCREG1          equ	4014	;# 
  1178   000FAF                     SPBRG           equ	4015	;# 
  1179   000FAF                     SPBRG1          equ	4015	;# 
  1180   000FB0                     SPBRGH          equ	4016	;# 
  1181   000FB1                     T3CON           equ	4017	;# 
  1182   000FB2                     TMR3            equ	4018	;# 
  1183   000FB2                     TMR3L           equ	4018	;# 
  1184   000FB3                     TMR3H           equ	4019	;# 
  1185   000FB4                     CVRCON2         equ	4020	;# 
  1186   000FB5                     CVRCON          equ	4021	;# 
  1187   000FB6                     ECCP1AS         equ	4022	;# 
  1188   000FB7                     PWM1CON         equ	4023	;# 
  1189   000FB8                     BAUDCON         equ	4024	;# 
  1190   000FB8                     BAUDCTL         equ	4024	;# 
  1191   000FB9                     PSTRCON         equ	4025	;# 
  1192   000FBA                     CCP2CON         equ	4026	;# 
  1193   000FBB                     CCPR2           equ	4027	;# 
  1194   000FBB                     CCPR2L          equ	4027	;# 
  1195   000FBC                     CCPR2H          equ	4028	;# 
  1196   000FBD                     CCP1CON         equ	4029	;# 
  1197   000FBE                     CCPR1           equ	4030	;# 
  1198   000FBE                     CCPR1L          equ	4030	;# 
  1199   000FBF                     CCPR1H          equ	4031	;# 
  1200   000FC0                     ADCON2          equ	4032	;# 
  1201   000FC1                     ADCON1          equ	4033	;# 
  1202   000FC2                     ADCON0          equ	4034	;# 
  1203   000FC3                     ADRES           equ	4035	;# 
  1204   000FC3                     ADRESL          equ	4035	;# 
  1205   000FC4                     ADRESH          equ	4036	;# 
  1206   000FC5                     SSPCON2         equ	4037	;# 
  1207   000FC6                     SSPCON1         equ	4038	;# 
  1208   000FC7                     SSPSTAT         equ	4039	;# 
  1209   000FC8                     SSPADD          equ	4040	;# 
  1210   000FC9                     SSPBUF          equ	4041	;# 
  1211   000FCA                     T2CON           equ	4042	;# 
  1212   000FCB                     PR2             equ	4043	;# 
  1213   000FCB                     MEMCON          equ	4043	;# 
  1214   000FCC                     TMR2            equ	4044	;# 
  1215   000FCD                     T1CON           equ	4045	;# 
  1216   000FCE                     TMR1            equ	4046	;# 
  1217   000FCE                     TMR1L           equ	4046	;# 
  1218   000FCF                     TMR1H           equ	4047	;# 
  1219   000FD0                     RCON            equ	4048	;# 
  1220   000FD1                     WDTCON          equ	4049	;# 
  1221   000FD2                     HLVDCON         equ	4050	;# 
  1222   000FD2                     LVDCON          equ	4050	;# 
  1223   000FD3                     OSCCON          equ	4051	;# 
  1224   000FD5                     T0CON           equ	4053	;# 
  1225   000FD6                     TMR0            equ	4054	;# 
  1226   000FD6                     TMR0L           equ	4054	;# 
  1227   000FD7                     TMR0H           equ	4055	;# 
  1228   000FD8                     STATUS          equ	4056	;# 
  1229   000FD9                     FSR2            equ	4057	;# 
  1230   000FD9                     FSR2L           equ	4057	;# 
  1231   000FDA                     FSR2H           equ	4058	;# 
  1232   000FDB                     PLUSW2          equ	4059	;# 
  1233   000FDC                     PREINC2         equ	4060	;# 
  1234   000FDD                     POSTDEC2        equ	4061	;# 
  1235   000FDE                     POSTINC2        equ	4062	;# 
  1236   000FDF                     INDF2           equ	4063	;# 
  1237   000FE0                     BSR             equ	4064	;# 
  1238   000FE1                     FSR1            equ	4065	;# 
  1239   000FE1                     FSR1L           equ	4065	;# 
  1240   000FE2                     FSR1H           equ	4066	;# 
  1241   000FE3                     PLUSW1          equ	4067	;# 
  1242   000FE4                     PREINC1         equ	4068	;# 
  1243   000FE5                     POSTDEC1        equ	4069	;# 
  1244   000FE6                     POSTINC1        equ	4070	;# 
  1245   000FE7                     INDF1           equ	4071	;# 
  1246   000FE8                     WREG            equ	4072	;# 
  1247   000FE9                     FSR0            equ	4073	;# 
  1248   000FE9                     FSR0L           equ	4073	;# 
  1249   000FEA                     FSR0H           equ	4074	;# 
  1250   000FEB                     PLUSW0          equ	4075	;# 
  1251   000FEC                     PREINC0         equ	4076	;# 
  1252   000FED                     POSTDEC0        equ	4077	;# 
  1253   000FEE                     POSTINC0        equ	4078	;# 
  1254   000FEF                     INDF0           equ	4079	;# 
  1255   000FF0                     INTCON3         equ	4080	;# 
  1256   000FF1                     INTCON2         equ	4081	;# 
  1257   000FF2                     INTCON          equ	4082	;# 
  1258   000FF3                     PROD            equ	4083	;# 
  1259   000FF3                     PRODL           equ	4083	;# 
  1260   000FF4                     PRODH           equ	4084	;# 
  1261   000FF5                     TABLAT          equ	4085	;# 
  1262   000FF6                     TBLPTR          equ	4086	;# 
  1263   000FF6                     TBLPTRL         equ	4086	;# 
  1264   000FF7                     TBLPTRH         equ	4087	;# 
  1265   000FF8                     TBLPTRU         equ	4088	;# 
  1266   000FF9                     PCLAT           equ	4089	;# 
  1267   000FF9                     PC              equ	4089	;# 
  1268   000FF9                     PCL             equ	4089	;# 
  1269   000FFA                     PCLATH          equ	4090	;# 
  1270   000FFB                     PCLATU          equ	4091	;# 
  1271   000FFC                     STKPTR          equ	4092	;# 
  1272   000FFD                     TOS             equ	4093	;# 
  1273   000FFD                     TOSL            equ	4093	;# 
  1274   000FFE                     TOSH            equ	4094	;# 
  1275   000FFF                     TOSU            equ	4095	;# 
  1276                           
  1277                           	psect	idataCOMRAM
  1278   001704                     __pidataCOMRAM:
  1279                           	callstack 0
  1280                           
  1281                           ;initializer for gpio_dc_motor_rotate_counter_clock_wise@F3782
  1282   001704  00                 	db	0
  1283   001705  01                 	db	1
  1284                           
  1285                           ;initializer for gpio_dc_motor_rotate_clock_wise@F3776
  1286   001706  01                 	db	1
  1287   001707  00                 	db	0
  1288                           
  1289                           ;initializer for _keypad1
  1290   001708  02                 	db	2
  1291   001709  0A                 	db	10
  1292   00170A  12                 	db	18
  1293   00170B  1A                 	db	26
  1294   00170C  62                 	db	98
  1295   00170D  6A                 	db	106
  1296   00170E  72                 	db	114
  1297   00170F  7A                 	db	122
  1298                           
  1299                           ;initializer for _led1
  1300   001710  03                 	db	3
  1301   001711  00                 	db	0
  1302   001712  01                 	db	1
  1303                           
  1304                           	psect	smallconst
  1305   001000                     __psmallconst:
  1306                           	callstack 0
  1307   001000  00                 	db	0
  1308   001001                     _keypad_btns:
  1309                           	callstack 0
  1310   001001  37                 	db	55
  1311   001002  38                 	db	56
  1312   001003  39                 	db	57
  1313   001004  2F                 	db	47
  1314   001005  34                 	db	52
  1315   001006  35                 	db	53
  1316   001007  36                 	db	54
  1317   001008  2A                 	db	42
  1318   001009  31                 	db	49
  1319   00100A  32                 	db	50
  1320   00100B  33                 	db	51
  1321   00100C  2D                 	db	45
  1322   00100D  43                 	db	67
  1323   00100E  30                 	db	48
  1324   00100F  3D                 	db	61
  1325   001010  2B                 	db	43
  1326   001011                     __end_of_keypad_btns:
  1327                           	callstack 0
  1328   001011                     _lat_regs:
  1329                           	callstack 0
  1330   001011  89                 	db	137
  1331   001012  0F                 	db	15
  1332   001013  8A                 	db	138
  1333   001014  0F                 	db	15
  1334   001015  8B                 	db	139
  1335   001016  0F                 	db	15
  1336   001017  8C                 	db	140
  1337   001018  0F                 	db	15
  1338   001019  8D                 	db	141
  1339   00101A  0F                 	db	15
  1340   00101B                     __end_of_lat_regs:
  1341                           	callstack 0
  1342   00101B                     _port_regs:
  1343                           	callstack 0
  1344   00101B  80                 	db	128
  1345   00101C  0F                 	db	15
  1346   00101D  81                 	db	129
  1347   00101E  0F                 	db	15
  1348   00101F  82                 	db	130
  1349   001020  0F                 	db	15
  1350   001021  83                 	db	131
  1351   001022  0F                 	db	15
  1352   001023  84                 	db	132
  1353   001024  0F                 	db	15
  1354   001025                     __end_of_port_regs:
  1355                           	callstack 0
  1356   001025                     _tris_regs:
  1357                           	callstack 0
  1358   001025  92                 	db	146
  1359   001026  0F                 	db	15
  1360   001027  93                 	db	147
  1361   001028  0F                 	db	15
  1362   001029  94                 	db	148
  1363   00102A  0F                 	db	15
  1364   00102B  95                 	db	149
  1365   00102C  0F                 	db	15
  1366   00102D  96                 	db	150
  1367   00102E  0F                 	db	15
  1368   00102F                     __end_of_tris_regs:
  1369                           	callstack 0
  1370   000F8D                     _LATE           set	3981
  1371   000F8C                     _LATD           set	3980
  1372   000F8B                     _LATC           set	3979
  1373   000F8A                     _LATB           set	3978
  1374   000F89                     _LATA           set	3977
  1375   000F84                     _PORTE          set	3972
  1376   000F83                     _PORTD          set	3971
  1377   000F82                     _PORTC          set	3970
  1378   000F81                     _PORTB          set	3969
  1379   000F80                     _PORTA          set	3968
  1380   000F96                     _TRISE          set	3990
  1381   000F95                     _TRISD          set	3989
  1382   000F94                     _TRISC          set	3988
  1383   000F93                     _TRISB          set	3987
  1384   000F92                     _TRISA          set	3986
  1385   00102F  00                 	db	0	; dummy byte at the end
  1386   001000                     __smallconst    set	__psmallconst
  1387   001000                     __mediumconst   set	__psmallconst
  1388   000002                     __activetblptr  equ	2
  1389                           
  1390                           ; #config settings
  1391                           
  1392                           	psect	cinit
  1393   0016D4                     __pcinit:
  1394                           	callstack 0
  1395   0016D4                     start_initialization:
  1396                           	callstack 0
  1397   0016D4                     __initialization:
  1398                           	callstack 0
  1399                           
  1400                           ; Initialize objects allocated to COMRAM (15 bytes)
  1401                           ; load TBLPTR registers with __pidataCOMRAM
  1402   0016D4  0E04               	movlw	low __pidataCOMRAM
  1403   0016D6  6EF6               	movwf	tblptrl,c
  1404   0016D8  0E17               	movlw	high __pidataCOMRAM
  1405   0016DA  6EF7               	movwf	tblptrh,c
  1406   0016DC  0E00               	movlw	low (__pidataCOMRAM shr (0+16))
  1407   0016DE  6EF8               	movwf	tblptru,c
  1408   0016E0  EE00  F015         	lfsr	0,__pdataCOMRAM
  1409   0016E4  EE10 F00F          	lfsr	1,15
  1410   0016E8                     copy_data0:
  1411   0016E8  0009               	tblrd		*+
  1412   0016EA  CFF5 FFEE          	movff	tablat,postinc0
  1413   0016EE  50E5               	movf	postdec1,w,c
  1414   0016F0  50E1               	movf	fsr1l,w,c
  1415   0016F2  E1FA               	bnz	copy_data0
  1416                           
  1417                           ; Clear objects allocated to COMRAM (3 bytes)
  1418   0016F4  6A26               	clrf	(__pbssCOMRAM+2)& (0+255),c
  1419   0016F6  6A25               	clrf	(__pbssCOMRAM+1)& (0+255),c
  1420   0016F8  6A24               	clrf	__pbssCOMRAM& (0+255),c
  1421   0016FA                     end_of_initialization:
  1422                           	callstack 0
  1423   0016FA                     __end_of__initialization:
  1424                           	callstack 0
  1425   0016FA  0E00               	movlw	low (__Lmediumconst shr (0+16))
  1426   0016FC  6EF8               	movwf	tblptru,c
  1427   0016FE  0100               	movlb	0
  1428   001700  EFDF  F00A         	goto	_main	;jump to C main() function
  1429                           
  1430                           	psect	bssCOMRAM
  1431   000024                     __pbssCOMRAM:
  1432                           	callstack 0
  1433   000024                     	ds	2
  1434   000026                     _data13:
  1435                           	callstack 0
  1436   000026                     	ds	1
  1437                           
  1438                           	psect	dataCOMRAM
  1439   000015                     __pdataCOMRAM:
  1440                           	callstack 0
  1441   000015                     gpio_dc_motor_rotate_counter_clock_wise@F3782:
  1442                           	callstack 0
  1443   000015                     	ds	2
  1444   000017                     gpio_dc_motor_rotate_clock_wise@F3776:
  1445                           	callstack 0
  1446   000017                     	ds	2
  1447   000019                     _keypad1:
  1448                           	callstack 0
  1449   000019                     	ds	8
  1450   000021                     _led1:
  1451                           	callstack 0
  1452   000021                     	ds	3
  1453                           
  1454                           	psect	cstackCOMRAM
  1455   000001                     __pcstackCOMRAM:
  1456                           	callstack 0
  1457   000001                     gpio_pin_direction_init@pin:
  1458                           	callstack 0
  1459   000001                     gpio_pin_write_logic@pin:
  1460                           	callstack 0
  1461   000001                     gpio_pin_read_logic@pin:
  1462                           	callstack 0
  1463                           
  1464                           ; 1 bytes @ 0x0
  1465   000001                     	ds	1
  1466   000002                     gpio_pin_write_logic@logic:
  1467                           	callstack 0
  1468   000002                     gpio_pin_read_logic@logic:
  1469                           	callstack 0
  1470   000002                     ??_gpio_pin_direction_init:
  1471                           
  1472                           ; 1 bytes @ 0x1
  1473   000002                     	ds	1
  1474   000003                     ??_gpio_pin_read_logic:
  1475   000003                     ??_gpio_pin_write_logic:
  1476                           
  1477                           ; 1 bytes @ 0x2
  1478   000003                     	ds	5
  1479   000008                     gpio_pin_direction_init@Retval:
  1480                           	callstack 0
  1481   000008                     gpio_pin_read_logic@Retval:
  1482                           	callstack 0
  1483                           
  1484                           ; 1 bytes @ 0x7
  1485   000008                     	ds	1
  1486   000009                     gpio_pin_write_logic@Retval:
  1487                           	callstack 0
  1488                           
  1489                           ; 1 bytes @ 0x8
  1490   000009                     	ds	1
  1491   00000A                     gpio_led_init@led:
  1492                           	callstack 0
  1493   00000A                     gpio_led_turn_off@led:
  1494                           	callstack 0
  1495   00000A                     gpio_led_turn_on@led:
  1496                           	callstack 0
  1497   00000A                     gpio_pin_init@pin:
  1498                           	callstack 0
  1499   00000A                     gpio_keypad_read_data@keypad:
  1500                           	callstack 0
  1501                           
  1502                           ; 1 bytes @ 0x9
  1503   00000A                     	ds	1
  1504   00000B                     gpio_keypad_read_data@data:
  1505                           	callstack 0
  1506   00000B                     ??_gpio_led_init:
  1507   00000B                     ??_gpio_led_turn_on:
  1508   00000B                     ??_gpio_led_turn_off:
  1509   00000B                     ??_gpio_pin_init:
  1510                           
  1511                           ; 1 bytes @ 0xA
  1512   00000B                     	ds	1
  1513   00000C                     gpio_pin_init@Retval:
  1514                           	callstack 0
  1515   00000C                     ??_gpio_keypad_read_data:
  1516                           
  1517                           ; 1 bytes @ 0xB
  1518   00000C                     	ds	1
  1519   00000D                     gpio_led_init@logic:
  1520                           	callstack 0
  1521   00000D                     gpio_led_turn_off@Retval:
  1522                           	callstack 0
  1523   00000D                     gpio_led_turn_on@Retval:
  1524                           	callstack 0
  1525   00000D                     gpio_keypad_init@keypad:
  1526                           	callstack 0
  1527   00000D                     gpio_keypad_read_data@deactive:
  1528                           	callstack 0
  1529                           
  1530                           ; 1 bytes @ 0xC
  1531   00000D                     	ds	1
  1532   00000E                     gpio_led_init@Retval:
  1533                           	callstack 0
  1534   00000E                     gpio_keypad_init@Retval:
  1535                           	callstack 0
  1536   00000E                     gpio_keypad_read_data@active:
  1537                           	callstack 0
  1538   00000E                     
  1539                           ; 1 bytes @ 0xD
  1540   00000E                     	ds	1
  1541   00000F                     gpio_keypad_init@i:
  1542                           	callstack 0
  1543   00000F                     gpio_keypad_read_data@Retval:
  1544                           	callstack 0
  1545                           
  1546                           ; 1 bytes @ 0xE
  1547   00000F                     	ds	1
  1548   000010                     gpio_keypad_init@j:
  1549                           	callstack 0
  1550   000010                     gpio_keypad_read_data@read:
  1551                           	callstack 0
  1552                           
  1553                           ; 1 bytes @ 0xF
  1554   000010                     	ds	1
  1555   000011                     gpio_keypad_read_data@j:
  1556                           	callstack 0
  1557                           
  1558                           ; 1 bytes @ 0x10
  1559   000011                     	ds	1
  1560   000012                     gpio_keypad_read_data@i:
  1561                           	callstack 0
  1562                           
  1563                           ; 1 bytes @ 0x11
  1564   000012                     	ds	1
  1565   000013                     gpio_keypad_read_data@k:
  1566                           	callstack 0
  1567                           
  1568                           ; 1 bytes @ 0x12
  1569   000013                     	ds	1
  1570   000014                     main@ret:
  1571                           	callstack 0
  1572   000014                     
  1573                           ; 1 bytes @ 0x13
  1574   000014                     	ds	1
  1575                           
  1576 ;;
  1577 ;;Main: autosize = 0, tempsize = 0, incstack = 0, save=0
  1578 ;;
  1579 ;; *************** function _main *****************
  1580 ;; Defined at:
  1581 ;;		line 59 in file "APPL/app.c"
  1582 ;; Parameters:    Size  Location     Type
  1583 ;;		None
  1584 ;; Auto vars:     Size  Location     Type
  1585 ;;  ret             1   19[COMRAM] enum E3659
  1586 ;; Return value:  Size  Location     Type
  1587 ;;                  2   20[None  ] int 
  1588 ;; Registers used:
  1589 ;;		wreg, fsr1l, fsr1h, fsr2l, fsr2h, status,2, status,0, tblptrl, tblptrh, tblptru, prodl, prodh, cstack
  1590 ;; Tracked objects:
  1591 ;;		On entry : 0/0
  1592 ;;		On exit  : 0/0
  1593 ;;		Unchanged: 0/0
  1594 ;; Data sizes:     COMRAM   BANK0   BANK1   BANK2   BANK3   BANK4   BANK5   BANK6   BANK7   BANK8   BANK9  BANK10  BANK1
      +1  BANK12  BANK13  BANK14  BANK15
  1595 ;;      Params:         0       0       0       0       0       0       0       0       0       0       0       0       
      +0       0       0       0       0
  1596 ;;      Locals:         1       0       0       0       0       0       0       0       0       0       0       0       
      +0       0       0       0       0
  1597 ;;      Temps:          0       0       0       0       0       0       0       0       0       0       0       0       
      +0       0       0       0       0
  1598 ;;      Totals:         1       0       0       0       0       0       0       0       0       0       0       0       
      +0       0       0       0       0
  1599 ;;Total ram usage:        1 bytes
  1600 ;; Hardware stack levels required when called: 3
  1601 ;; This function calls:
  1602 ;;		_gpio_keypad_init
  1603 ;;		_gpio_keypad_read_data
  1604 ;;		_gpio_led_init
  1605 ;;		_gpio_led_turn_off
  1606 ;;		_gpio_led_turn_on
  1607 ;; This function is called by:
  1608 ;;		Startup code after reset
  1609 ;; This function uses a non-reentrant model
  1610 ;;
  1611                           
  1612                           	psect	text0
  1613   0015BE                     __ptext0:
  1614                           	callstack 0
  1615   0015BE                     _main:
  1616                           	callstack 28
  1617   0015BE  0E19               	movlw	low _keypad1
  1618   0015C0  6E0D               	movwf	gpio_keypad_init@keypad^0,c
  1619   0015C2  EC3D  F00B         	call	_gpio_keypad_init	;wreg free
  1620   0015C6  6E14               	movwf	main@ret^0,c
  1621   0015C8  0E21               	movlw	low _led1
  1622   0015CA  6E0A               	movwf	gpio_led_init@led^0,c
  1623   0015CC  EC3B  F009         	call	_gpio_led_init	;wreg free
  1624   0015D0  6E14               	movwf	main@ret^0,c
  1625   0015D2                     l2039:
  1626   0015D2  0E19               	movlw	low _keypad1
  1627   0015D4  6E0A               	movwf	gpio_keypad_read_data@keypad^0,c
  1628   0015D6  0E26               	movlw	low _data13
  1629   0015D8  6E0B               	movwf	gpio_keypad_read_data@data^0,c
  1630   0015DA  ECB0  F009         	call	_gpio_keypad_read_data	;wreg free
  1631   0015DE  0E34               	movlw	52
  1632   0015E0  1826               	xorwf	_data13^0,w,c
  1633   0015E2  A4D8               	btfss	status,2,c
  1634   0015E4  EFF6  F00A         	goto	u1411
  1635   0015E8  EFF8  F00A         	goto	u1410
  1636   0015EC                     u1411:
  1637   0015EC  EFFE  F00A         	goto	l2045
  1638   0015F0                     u1410:
  1639   0015F0  0E21               	movlw	low _led1
  1640   0015F2  6E0A               	movwf	gpio_led_turn_on@led^0,c
  1641   0015F4  EC6D  F00A         	call	_gpio_led_turn_on	;wreg free
  1642   0015F8  EFE9  F00A         	goto	l2039
  1643   0015FC                     l2045:
  1644   0015FC  0E43               	movlw	67
  1645   0015FE  1826               	xorwf	_data13^0,w,c
  1646   001600  A4D8               	btfss	status,2,c
  1647   001602  EF05  F00B         	goto	u1421
  1648   001606  EF07  F00B         	goto	u1420
  1649   00160A                     u1421:
  1650   00160A  EFE9  F00A         	goto	l2039
  1651   00160E                     u1420:
  1652   00160E  0E21               	movlw	low _led1
  1653   001610  6E0A               	movwf	gpio_led_turn_off@led^0,c
  1654   001612  ECA6  F00A         	call	_gpio_led_turn_off	;wreg free
  1655   001616  EFE9  F00A         	goto	l2039
  1656   00161A  EFFE  F07F         	goto	start
  1657   00161E                     __end_of_main:
  1658                           	callstack 0
  1659                           
  1660 ;; *************** function _gpio_led_turn_on *****************
  1661 ;; Defined at:
  1662 ;;		line 127 in file "ECUAL/LED/ecual_led.c"
  1663 ;; Parameters:    Size  Location     Type
  1664 ;;  led             1    9[COMRAM] PTR const struct .
  1665 ;;		 -> led1(3), 
  1666 ;; Auto vars:     Size  Location     Type
  1667 ;;  logic           1    0        enum E3693
  1668 ;;  Retval          1   12[COMRAM] enum E3659
  1669 ;; Return value:  Size  Location     Type
  1670 ;;                  1    wreg      enum E3659
  1671 ;; Registers used:
  1672 ;;		wreg, fsr2l, fsr2h, status,2, status,0, tblptrl, tblptrh, tblptru, prodl, prodh, cstack
  1673 ;; Tracked objects:
  1674 ;;		On entry : 0/0
  1675 ;;		On exit  : 0/0
  1676 ;;		Unchanged: 0/0
  1677 ;; Data sizes:     COMRAM   BANK0   BANK1   BANK2   BANK3   BANK4   BANK5   BANK6   BANK7   BANK8   BANK9  BANK10  BANK1
      +1  BANK12  BANK13  BANK14  BANK15
  1678 ;;      Params:         1       0       0       0       0       0       0       0       0       0       0       0       
      +0       0       0       0       0
  1679 ;;      Locals:         1       0       0       0       0       0       0       0       0       0       0       0       
      +0       0       0       0       0
  1680 ;;      Temps:          2       0       0       0       0       0       0       0       0       0       0       0       
      +0       0       0       0       0
  1681 ;;      Totals:         4       0       0       0       0       0       0       0       0       0       0       0       
      +0       0       0       0       0
  1682 ;;Total ram usage:        4 bytes
  1683 ;; Hardware stack levels used: 1
  1684 ;; Hardware stack levels required when called: 1
  1685 ;; This function calls:
  1686 ;;		_gpio_pin_write_logic
  1687 ;; This function is called by:
  1688 ;;		_main
  1689 ;; This function uses a non-reentrant model
  1690 ;;
  1691                           
  1692                           	psect	text1
  1693   0014DA                     __ptext1:
  1694                           	callstack 0
  1695   0014DA                     _gpio_led_turn_on:
  1696                           	callstack 29
  1697   0014DA  500A               	movf	gpio_led_turn_on@led^0,w,c
  1698   0014DC  A4D8               	btfss	status,2,c
  1699   0014DE  EF73  F00A         	goto	u1281
  1700   0014E2  EF75  F00A         	goto	u1280
  1701   0014E6                     u1281:
  1702   0014E6  EF8A  F00A         	goto	l1929
  1703   0014EA                     u1280:
  1704   0014EA                     l1919:
  1705   0014EA  6A0D               	clrf	gpio_led_turn_on@Retval^0,c
  1706   0014EC  EFA4  F00A         	goto	l1931
  1707   0014F0                     l210:
  1708   0014F0  C00A  F001         	movff	gpio_led_turn_on@led,gpio_pin_write_logic@pin
  1709   0014F4  0E00               	movlw	0
  1710   0014F6  6E02               	movwf	gpio_pin_write_logic@logic^0,c
  1711   0014F8  ECAA  F008         	call	_gpio_pin_write_logic	;wreg free
  1712   0014FC  6E0D               	movwf	gpio_led_turn_on@Retval^0,c
  1713   0014FE  EFA4  F00A         	goto	l1931
  1714   001502                     l1923:
  1715   001502  C00A  F001         	movff	gpio_led_turn_on@led,gpio_pin_write_logic@pin
  1716   001506  0E01               	movlw	1
  1717   001508  6E02               	movwf	gpio_pin_write_logic@logic^0,c
  1718   00150A  ECAA  F008         	call	_gpio_pin_write_logic	;wreg free
  1719   00150E  6E0D               	movwf	gpio_led_turn_on@Retval^0,c
  1720   001510  EFA4  F00A         	goto	l1931
  1721   001514                     l1929:
  1722   001514  500A               	movf	gpio_led_turn_on@led^0,w,c
  1723   001516  6ED9               	movwf	fsr2l,c
  1724   001518  6ADA               	clrf	fsr2h,c
  1725   00151A  0E02               	movlw	2
  1726   00151C  26D9               	addwf	fsr2l,f,c
  1727   00151E  50DF               	movf	indf2,w,c
  1728   001520  6E0B               	movwf	??_gpio_led_turn_on^0,c
  1729   001522  6A0C               	clrf	(??_gpio_led_turn_on+1)^0,c
  1730                           
  1731                           ; Switch on 2 bytes has been partitioned into a top level switch of size 1, and 1 sub-sw
      +                          itches
  1732                           ; Switch size 1, requested type "simple"
  1733                           ; Number of cases is 1, Range of values is 0 to 0
  1734                           ; switch strategies available:
  1735                           ; Name         Instructions Cycles
  1736                           ; simple_byte            4     3 (average)
  1737                           ;	Chosen strategy is simple_byte
  1738   001524  500C               	movf	(??_gpio_led_turn_on+1)^0,w,c
  1739   001526  0A00               	xorlw	0	; case 0
  1740   001528  B4D8               	btfsc	status,2,c
  1741   00152A  EF99  F00A         	goto	l2297
  1742   00152E  EF75  F00A         	goto	l1919
  1743   001532                     l2297:
  1744                           
  1745                           ; Switch size 1, requested type "simple"
  1746                           ; Number of cases is 2, Range of values is 0 to 1
  1747                           ; switch strategies available:
  1748                           ; Name         Instructions Cycles
  1749                           ; simple_byte            7     4 (average)
  1750                           ;	Chosen strategy is simple_byte
  1751   001532  500B               	movf	??_gpio_led_turn_on^0,w,c
  1752   001534  0A00               	xorlw	0	; case 0
  1753   001536  B4D8               	btfsc	status,2,c
  1754   001538  EF78  F00A         	goto	l210
  1755   00153C  0A01               	xorlw	1	; case 1
  1756   00153E  B4D8               	btfsc	status,2,c
  1757   001540  EF81  F00A         	goto	l1923
  1758   001544  EF75  F00A         	goto	l1919
  1759   001548                     l1931:
  1760   001548  500D               	movf	gpio_led_turn_on@Retval^0,w,c
  1761   00154A  0012               	return		;funcret
  1762   00154C                     __end_of_gpio_led_turn_on:
  1763                           	callstack 0
  1764                           
  1765 ;; *************** function _gpio_led_turn_off *****************
  1766 ;; Defined at:
  1767 ;;		line 103 in file "ECUAL/LED/ecual_led.c"
  1768 ;; Parameters:    Size  Location     Type
  1769 ;;  led             1    9[COMRAM] PTR const struct .
  1770 ;;		 -> led1(3), 
  1771 ;; Auto vars:     Size  Location     Type
  1772 ;;  logic           1    0        enum E3693
  1773 ;;  Retval          1   12[COMRAM] enum E3659
  1774 ;; Return value:  Size  Location     Type
  1775 ;;                  1    wreg      enum E3659
  1776 ;; Registers used:
  1777 ;;		wreg, fsr2l, fsr2h, status,2, status,0, tblptrl, tblptrh, tblptru, prodl, prodh, cstack
  1778 ;; Tracked objects:
  1779 ;;		On entry : 0/0
  1780 ;;		On exit  : 0/0
  1781 ;;		Unchanged: 0/0
  1782 ;; Data sizes:     COMRAM   BANK0   BANK1   BANK2   BANK3   BANK4   BANK5   BANK6   BANK7   BANK8   BANK9  BANK10  BANK1
      +1  BANK12  BANK13  BANK14  BANK15
  1783 ;;      Params:         1       0       0       0       0       0       0       0       0       0       0       0       
      +0       0       0       0       0
  1784 ;;      Locals:         1       0       0       0       0       0       0       0       0       0       0       0       
      +0       0       0       0       0
  1785 ;;      Temps:          2       0       0       0       0       0       0       0       0       0       0       0       
      +0       0       0       0       0
  1786 ;;      Totals:         4       0       0       0       0       0       0       0       0       0       0       0       
      +0       0       0       0       0
  1787 ;;Total ram usage:        4 bytes
  1788 ;; Hardware stack levels used: 1
  1789 ;; Hardware stack levels required when called: 1
  1790 ;; This function calls:
  1791 ;;		_gpio_pin_write_logic
  1792 ;; This function is called by:
  1793 ;;		_main
  1794 ;; This function uses a non-reentrant model
  1795 ;;
  1796                           
  1797                           	psect	text2
  1798   00154C                     __ptext2:
  1799                           	callstack 0
  1800   00154C                     _gpio_led_turn_off:
  1801                           	callstack 29
  1802   00154C  500A               	movf	gpio_led_turn_off@led^0,w,c
  1803   00154E  A4D8               	btfss	status,2,c
  1804   001550  EFAC  F00A         	goto	u1291
  1805   001554  EFAE  F00A         	goto	u1290
  1806   001558                     u1291:
  1807   001558  EFC3  F00A         	goto	l1951
  1808   00155C                     u1290:
  1809   00155C                     l1941:
  1810   00155C  6A0D               	clrf	gpio_led_turn_off@Retval^0,c
  1811   00155E  EFDD  F00A         	goto	l1953
  1812   001562                     l1943:
  1813   001562  C00A  F001         	movff	gpio_led_turn_off@led,gpio_pin_write_logic@pin
  1814   001566  0E01               	movlw	1
  1815   001568  6E02               	movwf	gpio_pin_write_logic@logic^0,c
  1816   00156A  ECAA  F008         	call	_gpio_pin_write_logic	;wreg free
  1817   00156E  6E0D               	movwf	gpio_led_turn_off@Retval^0,c
  1818   001570  EFDD  F00A         	goto	l1953
  1819   001574                     l202:
  1820   001574  C00A  F001         	movff	gpio_led_turn_off@led,gpio_pin_write_logic@pin
  1821   001578  0E00               	movlw	0
  1822   00157A  6E02               	movwf	gpio_pin_write_logic@logic^0,c
  1823   00157C  ECAA  F008         	call	_gpio_pin_write_logic	;wreg free
  1824   001580  6E0D               	movwf	gpio_led_turn_off@Retval^0,c
  1825   001582  EFDD  F00A         	goto	l1953
  1826   001586                     l1951:
  1827   001586  500A               	movf	gpio_led_turn_off@led^0,w,c
  1828   001588  6ED9               	movwf	fsr2l,c
  1829   00158A  6ADA               	clrf	fsr2h,c
  1830   00158C  0E02               	movlw	2
  1831   00158E  26D9               	addwf	fsr2l,f,c
  1832   001590  50DF               	movf	indf2,w,c
  1833   001592  6E0B               	movwf	??_gpio_led_turn_off^0,c
  1834   001594  6A0C               	clrf	(??_gpio_led_turn_off+1)^0,c
  1835                           
  1836                           ; Switch on 2 bytes has been partitioned into a top level switch of size 1, and 1 sub-sw
      +                          itches
  1837                           ; Switch size 1, requested type "simple"
  1838                           ; Number of cases is 1, Range of values is 0 to 0
  1839                           ; switch strategies available:
  1840                           ; Name         Instructions Cycles
  1841                           ; simple_byte            4     3 (average)
  1842                           ;	Chosen strategy is simple_byte
  1843   001596  500C               	movf	(??_gpio_led_turn_off+1)^0,w,c
  1844   001598  0A00               	xorlw	0	; case 0
  1845   00159A  B4D8               	btfsc	status,2,c
  1846   00159C  EFD2  F00A         	goto	l2299
  1847   0015A0  EFAE  F00A         	goto	l1941
  1848   0015A4                     l2299:
  1849                           
  1850                           ; Switch size 1, requested type "simple"
  1851                           ; Number of cases is 2, Range of values is 0 to 1
  1852                           ; switch strategies available:
  1853                           ; Name         Instructions Cycles
  1854                           ; simple_byte            7     4 (average)
  1855                           ;	Chosen strategy is simple_byte
  1856   0015A4  500B               	movf	??_gpio_led_turn_off^0,w,c
  1857   0015A6  0A00               	xorlw	0	; case 0
  1858   0015A8  B4D8               	btfsc	status,2,c
  1859   0015AA  EFB1  F00A         	goto	l1943
  1860   0015AE  0A01               	xorlw	1	; case 1
  1861   0015B0  B4D8               	btfsc	status,2,c
  1862   0015B2  EFBA  F00A         	goto	l202
  1863   0015B6  EFAE  F00A         	goto	l1941
  1864   0015BA                     l1953:
  1865   0015BA  500D               	movf	gpio_led_turn_off@Retval^0,w,c
  1866   0015BC  0012               	return		;funcret
  1867   0015BE                     __end_of_gpio_led_turn_off:
  1868                           	callstack 0
  1869                           
  1870 ;; *************** function _gpio_led_init *****************
  1871 ;; Defined at:
  1872 ;;		line 24 in file "ECUAL/LED/ecual_led.c"
  1873 ;; Parameters:    Size  Location     Type
  1874 ;;  led             1    9[COMRAM] PTR const struct .
  1875 ;;		 -> led1(3), 
  1876 ;; Auto vars:     Size  Location     Type
  1877 ;;  logic           1   12[COMRAM] enum E3693
  1878 ;;  Retval          1   13[COMRAM] enum E3659
  1879 ;; Return value:  Size  Location     Type
  1880 ;;                  1    wreg      enum E3659
  1881 ;; Registers used:
  1882 ;;		wreg, fsr2l, fsr2h, status,2, status,0, tblptrl, tblptrh, tblptru, prodl, prodh, cstack
  1883 ;; Tracked objects:
  1884 ;;		On entry : 0/0
  1885 ;;		On exit  : 0/0
  1886 ;;		Unchanged: 0/0
  1887 ;; Data sizes:     COMRAM   BANK0   BANK1   BANK2   BANK3   BANK4   BANK5   BANK6   BANK7   BANK8   BANK9  BANK10  BANK1
      +1  BANK12  BANK13  BANK14  BANK15
  1888 ;;      Params:         1       0       0       0       0       0       0       0       0       0       0       0       
      +0       0       0       0       0
  1889 ;;      Locals:         2       0       0       0       0       0       0       0       0       0       0       0       
      +0       0       0       0       0
  1890 ;;      Temps:          2       0       0       0       0       0       0       0       0       0       0       0       
      +0       0       0       0       0
  1891 ;;      Totals:         5       0       0       0       0       0       0       0       0       0       0       0       
      +0       0       0       0       0
  1892 ;;Total ram usage:        5 bytes
  1893 ;; Hardware stack levels used: 1
  1894 ;; Hardware stack levels required when called: 1
  1895 ;; This function calls:
  1896 ;;		_gpio_pin_direction_init
  1897 ;;		_gpio_pin_write_logic
  1898 ;; This function is called by:
  1899 ;;		_main
  1900 ;; This function uses a non-reentrant model
  1901 ;;
  1902                           
  1903                           	psect	text3
  1904   001276                     __ptext3:
  1905                           	callstack 0
  1906   001276                     _gpio_led_init:
  1907                           	callstack 29
  1908   001276  500A               	movf	gpio_led_init@led^0,w,c
  1909   001278  A4D8               	btfss	status,2,c
  1910   00127A  EF41  F009         	goto	u1171
  1911   00127E  EF43  F009         	goto	u1170
  1912   001282                     u1171:
  1913   001282  EF46  F009         	goto	l1837
  1914   001286                     u1170:
  1915   001286  6A0E               	clrf	gpio_led_init@Retval^0,c
  1916   001288  EFAE  F009         	goto	l1861
  1917   00128C                     l1837:
  1918   00128C  C00A  F001         	movff	gpio_led_init@led,gpio_pin_direction_init@pin
  1919   001290  EC18  F008         	call	_gpio_pin_direction_init	;wreg free
  1920   001294  EF8D  F009         	goto	l1857
  1921   001298                     l1839:
  1922   001298  500A               	movf	gpio_led_init@led^0,w,c
  1923   00129A  6ED9               	movwf	fsr2l,c
  1924   00129C  6ADA               	clrf	fsr2h,c
  1925   00129E  0E01               	movlw	1
  1926   0012A0  26D9               	addwf	fsr2l,f,c
  1927   0012A2  50DF               	movf	indf2,w,c
  1928   0012A4  A4D8               	btfss	status,2,c
  1929   0012A6  EF57  F009         	goto	u1181
  1930   0012AA  EF59  F009         	goto	u1180
  1931   0012AE                     u1181:
  1932   0012AE  EF5D  F009         	goto	l1843
  1933   0012B2                     u1180:
  1934   0012B2                     l1841:
  1935   0012B2  0E01               	movlw	1
  1936   0012B4  6E0D               	movwf	gpio_led_init@logic^0,c
  1937   0012B6  EFA7  F009         	goto	l1859
  1938   0012BA                     l1843:
  1939   0012BA  500A               	movf	gpio_led_init@led^0,w,c
  1940   0012BC  6ED9               	movwf	fsr2l,c
  1941   0012BE  6ADA               	clrf	fsr2h,c
  1942   0012C0  0E01               	movlw	1
  1943   0012C2  26D9               	addwf	fsr2l,f,c
  1944   0012C4  04DE               	decf	postinc2,w,c
  1945   0012C6  A4D8               	btfss	status,2,c
  1946   0012C8  EF68  F009         	goto	u1191
  1947   0012CC  EF6A  F009         	goto	u1190
  1948   0012D0                     u1191:
  1949   0012D0  EF6D  F009         	goto	l165
  1950   0012D4                     u1190:
  1951   0012D4                     l1845:
  1952   0012D4  6A0D               	clrf	gpio_led_init@logic^0,c
  1953   0012D6  EFA7  F009         	goto	l1859
  1954   0012DA                     l165:
  1955   0012DA  EFA7  F009         	goto	l1859
  1956   0012DE                     l1847:
  1957   0012DE  500A               	movf	gpio_led_init@led^0,w,c
  1958   0012E0  6ED9               	movwf	fsr2l,c
  1959   0012E2  6ADA               	clrf	fsr2h,c
  1960   0012E4  0E01               	movlw	1
  1961   0012E6  26D9               	addwf	fsr2l,f,c
  1962   0012E8  50DF               	movf	indf2,w,c
  1963   0012EA  A4D8               	btfss	status,2,c
  1964   0012EC  EF7A  F009         	goto	u1201
  1965   0012F0  EF7C  F009         	goto	u1200
  1966   0012F4                     u1201:
  1967   0012F4  EF7E  F009         	goto	l1851
  1968   0012F8                     u1200:
  1969   0012F8  EF6A  F009         	goto	l1845
  1970   0012FC                     l1851:
  1971   0012FC  500A               	movf	gpio_led_init@led^0,w,c
  1972   0012FE  6ED9               	movwf	fsr2l,c
  1973   001300  6ADA               	clrf	fsr2h,c
  1974   001302  0E01               	movlw	1
  1975   001304  26D9               	addwf	fsr2l,f,c
  1976   001306  04DE               	decf	postinc2,w,c
  1977   001308  A4D8               	btfss	status,2,c
  1978   00130A  EF89  F009         	goto	u1211
  1979   00130E  EF8B  F009         	goto	u1210
  1980   001312                     u1211:
  1981   001312  EF6D  F009         	goto	l165
  1982   001316                     u1210:
  1983   001316  EF59  F009         	goto	l1841
  1984   00131A                     l1857:
  1985   00131A  500A               	movf	gpio_led_init@led^0,w,c
  1986   00131C  6ED9               	movwf	fsr2l,c
  1987   00131E  6ADA               	clrf	fsr2h,c
  1988   001320  0E02               	movlw	2
  1989   001322  26D9               	addwf	fsr2l,f,c
  1990   001324  50DF               	movf	indf2,w,c
  1991   001326  6E0B               	movwf	??_gpio_led_init^0,c
  1992   001328  6A0C               	clrf	(??_gpio_led_init+1)^0,c
  1993                           
  1994                           ; Switch on 2 bytes has been partitioned into a top level switch of size 1, and 1 sub-sw
      +                          itches
  1995                           ; Switch size 1, requested type "simple"
  1996                           ; Number of cases is 1, Range of values is 0 to 0
  1997                           ; switch strategies available:
  1998                           ; Name         Instructions Cycles
  1999                           ; simple_byte            4     3 (average)
  2000                           ;	Chosen strategy is simple_byte
  2001   00132A  500C               	movf	(??_gpio_led_init+1)^0,w,c
  2002   00132C  0A00               	xorlw	0	; case 0
  2003   00132E  B4D8               	btfsc	status,2,c
  2004   001330  EF9C  F009         	goto	l2301
  2005   001334  EF6D  F009         	goto	l165
  2006   001338                     l2301:
  2007                           
  2008                           ; Switch size 1, requested type "simple"
  2009                           ; Number of cases is 2, Range of values is 0 to 1
  2010                           ; switch strategies available:
  2011                           ; Name         Instructions Cycles
  2012                           ; simple_byte            7     4 (average)
  2013                           ;	Chosen strategy is simple_byte
  2014   001338  500B               	movf	??_gpio_led_init^0,w,c
  2015   00133A  0A00               	xorlw	0	; case 0
  2016   00133C  B4D8               	btfsc	status,2,c
  2017   00133E  EF4C  F009         	goto	l1839
  2018   001342  0A01               	xorlw	1	; case 1
  2019   001344  B4D8               	btfsc	status,2,c
  2020   001346  EF6F  F009         	goto	l1847
  2021   00134A  EF6D  F009         	goto	l165
  2022   00134E                     l1859:
  2023   00134E  C00A  F001         	movff	gpio_led_init@led,gpio_pin_write_logic@pin
  2024   001352  C00D  F002         	movff	gpio_led_init@logic,gpio_pin_write_logic@logic
  2025   001356  ECAA  F008         	call	_gpio_pin_write_logic	;wreg free
  2026   00135A  6E0E               	movwf	gpio_led_init@Retval^0,c
  2027   00135C                     l1861:
  2028   00135C  500E               	movf	gpio_led_init@Retval^0,w,c
  2029   00135E  0012               	return		;funcret
  2030   001360                     __end_of_gpio_led_init:
  2031                           	callstack 0
  2032                           
  2033 ;; *************** function _gpio_keypad_read_data *****************
  2034 ;; Defined at:
  2035 ;;		line 62 in file "ECUAL/Keypad/ecual_keypad.c"
  2036 ;; Parameters:    Size  Location     Type
  2037 ;;  keypad          1    9[COMRAM] PTR const struct .
  2038 ;;		 -> keypad1(8), 
  2039 ;;  data            1   10[COMRAM] PTR unsigned char 
  2040 ;;		 -> data13(1), 
  2041 ;; Auto vars:     Size  Location     Type
  2042 ;;  k               1   18[COMRAM] unsigned char 
  2043 ;;  j               1   16[COMRAM] unsigned char 
  2044 ;;  i               1   17[COMRAM] unsigned char 
  2045 ;;  read            1   15[COMRAM] enum E3693
  2046 ;;  active          1   13[COMRAM] enum E3693
  2047 ;;  deactive        1   12[COMRAM] enum E3693
  2048 ;;  Retval          1   14[COMRAM] enum E3659
  2049 ;; Return value:  Size  Location     Type
  2050 ;;                  1    wreg      enum E3659
  2051 ;; Registers used:
  2052 ;;		wreg, fsr1l, fsr1h, fsr2l, fsr2h, status,2, status,0, tblptrl, tblptrh, tblptru, prodl, prodh, cstack
  2053 ;; Tracked objects:
  2054 ;;		On entry : 0/0
  2055 ;;		On exit  : 0/0
  2056 ;;		Unchanged: 0/0
  2057 ;; Data sizes:     COMRAM   BANK0   BANK1   BANK2   BANK3   BANK4   BANK5   BANK6   BANK7   BANK8   BANK9  BANK10  BANK1
      +1  BANK12  BANK13  BANK14  BANK15
  2058 ;;      Params:         2       0       0       0       0       0       0       0       0       0       0       0       
      +0       0       0       0       0
  2059 ;;      Locals:         7       0       0       0       0       0       0       0       0       0       0       0       
      +0       0       0       0       0
  2060 ;;      Temps:          1       0       0       0       0       0       0       0       0       0       0       0       
      +0       0       0       0       0
  2061 ;;      Totals:        10       0       0       0       0       0       0       0       0       0       0       0       
      +0       0       0       0       0
  2062 ;;Total ram usage:       10 bytes
  2063 ;; Hardware stack levels used: 1
  2064 ;; Hardware stack levels required when called: 1
  2065 ;; This function calls:
  2066 ;;		_gpio_pin_read_logic
  2067 ;;		_gpio_pin_write_logic
  2068 ;; This function is called by:
  2069 ;;		_main
  2070 ;; This function uses a non-reentrant model
  2071 ;;
  2072                           
  2073                           	psect	text4
  2074   001360                     __ptext4:
  2075                           	callstack 0
  2076   001360                     _gpio_keypad_read_data:
  2077                           	callstack 29
  2078   001360  500A               	movf	gpio_keypad_read_data@keypad^0,w,c
  2079   001362  B4D8               	btfsc	status,2,c
  2080   001364  EFB6  F009         	goto	u1221
  2081   001368  EFB8  F009         	goto	u1220
  2082   00136C                     u1221:
  2083   00136C  EFC0  F009         	goto	l404
  2084   001370                     u1220:
  2085   001370  500B               	movf	gpio_keypad_read_data@data^0,w,c
  2086   001372  A4D8               	btfss	status,2,c
  2087   001374  EFBE  F009         	goto	u1231
  2088   001378  EFC0  F009         	goto	u1230
  2089   00137C                     u1231:
  2090   00137C  EFC3  F009         	goto	l402
  2091   001380                     u1230:
  2092   001380                     l404:
  2093   001380  6A0F               	clrf	gpio_keypad_read_data@Retval^0,c
  2094   001382  EF15  F00A         	goto	l1913
  2095   001386                     l402:
  2096   001386  6A0D               	clrf	gpio_keypad_read_data@deactive^0,c
  2097   001388  0E01               	movlw	1
  2098   00138A  6E0E               	movwf	gpio_keypad_read_data@active^0,c
  2099   00138C  6A12               	clrf	gpio_keypad_read_data@i^0,c
  2100   00138E                     l406:
  2101   00138E  6A11               	clrf	gpio_keypad_read_data@j^0,c
  2102   001390                     l1885:
  2103   001390  500A               	movf	gpio_keypad_read_data@keypad^0,w,c
  2104   001392  2411               	addwf	gpio_keypad_read_data@j^0,w,c
  2105   001394  6E01               	movwf	gpio_pin_write_logic@pin^0,c
  2106   001396  C00D  F002         	movff	gpio_keypad_read_data@deactive,gpio_pin_write_logic@logic
  2107   00139A  ECAA  F008         	call	_gpio_pin_write_logic	;wreg free
  2108   00139E  2A11               	incf	gpio_keypad_read_data@j^0,f,c
  2109   0013A0  0E03               	movlw	3
  2110   0013A2  6411               	cpfsgt	gpio_keypad_read_data@j^0,c
  2111   0013A4  EFD6  F009         	goto	u1241
  2112   0013A8  EFD8  F009         	goto	u1240
  2113   0013AC                     u1241:
  2114   0013AC  EFC8  F009         	goto	l1885
  2115   0013B0                     u1240:
  2116   0013B0  500A               	movf	gpio_keypad_read_data@keypad^0,w,c
  2117   0013B2  2412               	addwf	gpio_keypad_read_data@i^0,w,c
  2118   0013B4  6E01               	movwf	gpio_pin_write_logic@pin^0,c
  2119   0013B6  C00E  F002         	movff	gpio_keypad_read_data@active,gpio_pin_write_logic@logic
  2120   0013BA  ECAA  F008         	call	_gpio_pin_write_logic	;wreg free
  2121   0013BE  6A13               	clrf	gpio_keypad_read_data@k^0,c
  2122   0013C0                     l1899:
  2123   0013C0  500A               	movf	gpio_keypad_read_data@keypad^0,w,c
  2124   0013C2  2413               	addwf	gpio_keypad_read_data@k^0,w,c
  2125   0013C4  0F04               	addlw	4
  2126   0013C6  6E01               	movwf	gpio_pin_read_logic@pin^0,c
  2127   0013C8  0E10               	movlw	low gpio_keypad_read_data@read
  2128   0013CA  6E02               	movwf	gpio_pin_read_logic@logic^0,c
  2129   0013CC  EC17  F00A         	call	_gpio_pin_read_logic	;wreg free
  2130   0013D0  6E0F               	movwf	gpio_keypad_read_data@Retval^0,c
  2131   0013D2  0410               	decf	gpio_keypad_read_data@read^0,w,c
  2132   0013D4  A4D8               	btfss	status,2,c
  2133   0013D6  EFEF  F009         	goto	u1251
  2134   0013DA  EFF1  F009         	goto	u1250
  2135   0013DE                     u1251:
  2136   0013DE  EF03  F00A         	goto	l1905
  2137   0013E2                     u1250:
  2138   0013E2  5012               	movf	gpio_keypad_read_data@i^0,w,c
  2139   0013E4  0D04               	mullw	4
  2140   0013E6  50F3               	movf	243,w,c
  2141   0013E8  0F01               	addlw	low _keypad_btns
  2142   0013EA  2413               	addwf	gpio_keypad_read_data@k^0,w,c
  2143   0013EC  6E0C               	movwf	??_gpio_keypad_read_data^0,c
  2144   0013EE  C00C  FFF6         	movff	??_gpio_keypad_read_data,tblptrl
  2145   0013F2                     	if	1	;There is more than 1 active tblptr byte
  2146   0013F2  0E10               	movlw	high __smallconst
  2147   0013F4  6EF7               	movwf	tblptrh,c
  2148   0013F6                     	endif
  2149   0013F6                     	if	0	;tblptru may be non-zero
  2150   0013F6                     	endif
  2151   0013F6                     	if	0	;tblptru may be non-zero
  2152   0013F6                     	endif
  2153   0013F6  500B               	movf	gpio_keypad_read_data@data^0,w,c
  2154   0013F8  6ED9               	movwf	fsr2l,c
  2155   0013FA  6ADA               	clrf	fsr2h,c
  2156   0013FC  0008               	tblrd		*
  2157   0013FE  CFF5 FFDF          	movff	tablat,indf2
  2158   001402  EF0C  F00A         	goto	l1909
  2159   001406                     l1905:
  2160   001406  2A13               	incf	gpio_keypad_read_data@k^0,f,c
  2161   001408  0E03               	movlw	3
  2162   00140A  6413               	cpfsgt	gpio_keypad_read_data@k^0,c
  2163   00140C  EF0A  F00A         	goto	u1261
  2164   001410  EF0C  F00A         	goto	u1260
  2165   001414                     u1261:
  2166   001414  EFE0  F009         	goto	l1899
  2167   001418                     u1260:
  2168   001418                     l1909:
  2169   001418  2A12               	incf	gpio_keypad_read_data@i^0,f,c
  2170   00141A  0E03               	movlw	3
  2171   00141C  6412               	cpfsgt	gpio_keypad_read_data@i^0,c
  2172   00141E  EF13  F00A         	goto	u1271
  2173   001422  EF15  F00A         	goto	u1270
  2174   001426                     u1271:
  2175   001426  EFC7  F009         	goto	l406
  2176   00142A                     u1270:
  2177   00142A                     l1913:
  2178   00142A  500F               	movf	gpio_keypad_read_data@Retval^0,w,c
  2179   00142C  0012               	return		;funcret
  2180   00142E                     __end_of_gpio_keypad_read_data:
  2181                           	callstack 0
  2182                           
  2183 ;; *************** function _gpio_pin_read_logic *****************
  2184 ;; Defined at:
  2185 ;;		line 81 in file "MCAL/GPIO/hal_gpio.c"
  2186 ;; Parameters:    Size  Location     Type
  2187 ;;  pin             1    0[COMRAM] PTR const struct .
  2188 ;;		 -> keypad1$col_pins(4), keypad1(8), 
  2189 ;;  logic           1    1[COMRAM] PTR enum E3693
  2190 ;;		 -> gpio_keypad_read_data@read(1), gpio_relay_read_logic@logic(1), gpio_led_read_logic@status(1), gpio_dc_motor_read
      +_state@logic(2), 
  2191 ;;		 -> gpio_btn_read_status@logic(1), gpio_segment_read_number@logic(1), 
  2192 ;; Auto vars:     Size  Location     Type
  2193 ;;  Retval          1    7[COMRAM] enum E3659
  2194 ;; Return value:  Size  Location     Type
  2195 ;;                  1    wreg      enum E3659
  2196 ;; Registers used:
  2197 ;;		wreg, fsr1l, fsr1h, fsr2l, fsr2h, status,2, status,0, tblptrl, tblptrh, tblptru, prodl, prodh
  2198 ;; Tracked objects:
  2199 ;;		On entry : 0/0
  2200 ;;		On exit  : 0/0
  2201 ;;		Unchanged: 0/0
  2202 ;; Data sizes:     COMRAM   BANK0   BANK1   BANK2   BANK3   BANK4   BANK5   BANK6   BANK7   BANK8   BANK9  BANK10  BANK1
      +1  BANK12  BANK13  BANK14  BANK15
  2203 ;;      Params:         2       0       0       0       0       0       0       0       0       0       0       0       
      +0       0       0       0       0
  2204 ;;      Locals:         1       0       0       0       0       0       0       0       0       0       0       0       
      +0       0       0       0       0
  2205 ;;      Temps:          5       0       0       0       0       0       0       0       0       0       0       0       
      +0       0       0       0       0
  2206 ;;      Totals:         8       0       0       0       0       0       0       0       0       0       0       0       
      +0       0       0       0       0
  2207 ;;Total ram usage:        8 bytes
  2208 ;; Hardware stack levels used: 1
  2209 ;; This function calls:
  2210 ;;		Nothing
  2211 ;; This function is called by:
  2212 ;;		_gpio_keypad_read_data
  2213 ;;		_gpio_segment_read_number
  2214 ;;		_gpio_btn_read_status
  2215 ;;		_gpio_dc_motor_read_state
  2216 ;;		_gpio_led_read_logic
  2217 ;;		_gpio_relay_read_logic
  2218 ;; This function uses a non-reentrant model
  2219 ;;
  2220                           
  2221                           	psect	text5
  2222   00142E                     __ptext5:
  2223                           	callstack 0
  2224   00142E                     _gpio_pin_read_logic:
  2225                           	callstack 29
  2226   00142E  0E01               	movlw	1
  2227   001430  6E08               	movwf	gpio_pin_read_logic@Retval^0,c
  2228   001432  5001               	movf	gpio_pin_read_logic@pin^0,w,c
  2229   001434  B4D8               	btfsc	status,2,c
  2230   001436  EF1F  F00A         	goto	u1101
  2231   00143A  EF21  F00A         	goto	u1100
  2232   00143E                     u1101:
  2233   00143E  EF39  F00A         	goto	l330
  2234   001442                     u1100:
  2235   001442  5001               	movf	gpio_pin_read_logic@pin^0,w,c
  2236   001444  6ED9               	movwf	fsr2l,c
  2237   001446  6ADA               	clrf	fsr2h,c
  2238   001448  30DF               	rrcf	223,w,c
  2239   00144A  32E8               	rrcf	wreg,f,c
  2240   00144C  32E8               	rrcf	wreg,f,c
  2241   00144E  0B07               	andlw	7
  2242   001450  6E03               	movwf	??_gpio_pin_read_logic^0,c
  2243   001452  0E08               	movlw	8
  2244   001454  6003               	cpfslt	??_gpio_pin_read_logic^0,c
  2245   001456  EF2F  F00A         	goto	u1111
  2246   00145A  EF31  F00A         	goto	u1110
  2247   00145E                     u1111:
  2248   00145E  EF39  F00A         	goto	l330
  2249   001462                     u1110:
  2250   001462  5002               	movf	gpio_pin_read_logic@logic^0,w,c
  2251   001464  A4D8               	btfss	status,2,c
  2252   001466  EF37  F00A         	goto	u1121
  2253   00146A  EF39  F00A         	goto	u1120
  2254   00146E                     u1121:
  2255   00146E  EF3C  F00A         	goto	l1799
  2256   001472                     u1120:
  2257   001472                     l330:
  2258   001472  6A08               	clrf	gpio_pin_read_logic@Retval^0,c
  2259   001474  EF6B  F00A         	goto	l1801
  2260   001478                     l1799:
  2261   001478  5002               	movf	gpio_pin_read_logic@logic^0,w,c
  2262   00147A  6ED9               	movwf	fsr2l,c
  2263   00147C  6ADA               	clrf	fsr2h,c
  2264   00147E  5001               	movf	gpio_pin_read_logic@pin^0,w,c
  2265   001480  6EE1               	movwf	fsr1l,c
  2266   001482  6AE2               	clrf	fsr1h,c
  2267   001484  30E7               	rrcf	231,w,c
  2268   001486  32E8               	rrcf	wreg,f,c
  2269   001488  32E8               	rrcf	wreg,f,c
  2270   00148A  0B07               	andlw	7
  2271   00148C  6E03               	movwf	??_gpio_pin_read_logic^0,c
  2272   00148E  5001               	movf	gpio_pin_read_logic@pin^0,w,c
  2273   001490  6EE1               	movwf	fsr1l,c
  2274   001492  6AE2               	clrf	fsr1h,c
  2275   001494  50E7               	movf	231,w,c
  2276   001496  0B07               	andlw	7
  2277   001498  0D02               	mullw	2
  2278   00149A  50F3               	movf	243,w,c
  2279   00149C  0F1B               	addlw	low _port_regs
  2280   00149E  6E04               	movwf	(??_gpio_pin_read_logic+1)^0,c
  2281   0014A0  C004  FFF6         	movff	??_gpio_pin_read_logic+1,tblptrl
  2282   0014A4                     	if	1	;There is more than 1 active tblptr byte
  2283   0014A4  0E10               	movlw	high __smallconst
  2284   0014A6  6EF7               	movwf	tblptrh,c
  2285   0014A8                     	endif
  2286   0014A8                     	if	0	;tblptru may be non-zero
  2287   0014A8                     	endif
  2288   0014A8                     	if	0	;tblptru may be non-zero
  2289   0014A8                     	endif
  2290   0014A8  0009               	tblrd		*+
  2291   0014AA  CFF5 F005          	movff	tablat,??_gpio_pin_read_logic+2
  2292   0014AE  0009               	tblrd		*+
  2293   0014B0  CFF5 F006          	movff	tablat,??_gpio_pin_read_logic+3
  2294   0014B4  C005  FFE1         	movff	??_gpio_pin_read_logic+2,fsr1l
  2295   0014B8  C006  FFE2         	movff	??_gpio_pin_read_logic+3,fsr1h
  2296   0014BC  50E7               	movf	indf1,w,c
  2297   0014BE  6E07               	movwf	(??_gpio_pin_read_logic+4)^0,c
  2298   0014C0  2A03               	incf	??_gpio_pin_read_logic^0,f,c
  2299   0014C2  EF65  F00A         	goto	u1134
  2300   0014C6                     u1135:
  2301   0014C6  90D8               	bcf	status,0,c
  2302   0014C8  3207               	rrcf	(??_gpio_pin_read_logic+4)^0,f,c
  2303   0014CA                     u1134:
  2304   0014CA  2E03               	decfsz	??_gpio_pin_read_logic^0,f,c
  2305   0014CC  EF63  F00A         	goto	u1135
  2306   0014D0  5007               	movf	(??_gpio_pin_read_logic+4)^0,w,c
  2307   0014D2  0B01               	andlw	1
  2308   0014D4  6EDF               	movwf	indf2,c
  2309   0014D6                     l1801:
  2310   0014D6  5008               	movf	gpio_pin_read_logic@Retval^0,w,c
  2311   0014D8  0012               	return		;funcret
  2312   0014DA                     __end_of_gpio_pin_read_logic:
  2313                           	callstack 0
  2314                           
  2315 ;; *************** function _gpio_keypad_init *****************
  2316 ;; Defined at:
  2317 ;;		line 45 in file "ECUAL/Keypad/ecual_keypad.c"
  2318 ;; Parameters:    Size  Location     Type
  2319 ;;  keypad          1   12[COMRAM] PTR const struct .
  2320 ;;		 -> keypad1(8), 
  2321 ;; Auto vars:     Size  Location     Type
  2322 ;;  j               1   15[COMRAM] unsigned char 
  2323 ;;  i               1   14[COMRAM] unsigned char 
  2324 ;;  Retval          1   13[COMRAM] enum E3659
  2325 ;; Return value:  Size  Location     Type
  2326 ;;                  1    wreg      enum E3659
  2327 ;; Registers used:
  2328 ;;		wreg, fsr2l, fsr2h, status,2, status,0, tblptrl, tblptrh, tblptru, prodl, prodh, cstack
  2329 ;; Tracked objects:
  2330 ;;		On entry : 0/0
  2331 ;;		On exit  : 0/0
  2332 ;;		Unchanged: 0/0
  2333 ;; Data sizes:     COMRAM   BANK0   BANK1   BANK2   BANK3   BANK4   BANK5   BANK6   BANK7   BANK8   BANK9  BANK10  BANK1
      +1  BANK12  BANK13  BANK14  BANK15
  2334 ;;      Params:         1       0       0       0       0       0       0       0       0       0       0       0       
      +0       0       0       0       0
  2335 ;;      Locals:         3       0       0       0       0       0       0       0       0       0       0       0       
      +0       0       0       0       0
  2336 ;;      Temps:          0       0       0       0       0       0       0       0       0       0       0       0       
      +0       0       0       0       0
  2337 ;;      Totals:         4       0       0       0       0       0       0       0       0       0       0       0       
      +0       0       0       0       0
  2338 ;;Total ram usage:        4 bytes
  2339 ;; Hardware stack levels used: 1
  2340 ;; Hardware stack levels required when called: 2
  2341 ;; This function calls:
  2342 ;;		_gpio_pin_direction_init
  2343 ;;		_gpio_pin_init
  2344 ;; This function is called by:
  2345 ;;		_main
  2346 ;; This function uses a non-reentrant model
  2347 ;;
  2348                           
  2349                           	psect	text6
  2350   00167A                     __ptext6:
  2351                           	callstack 0
  2352   00167A                     _gpio_keypad_init:
  2353                           	callstack 28
  2354   00167A  500D               	movf	gpio_keypad_init@keypad^0,w,c
  2355   00167C  A4D8               	btfss	status,2,c
  2356   00167E  EF43  F00B         	goto	u1141
  2357   001682  EF45  F00B         	goto	u1140
  2358   001686                     u1141:
  2359   001686  EF48  F00B         	goto	l393
  2360   00168A                     u1140:
  2361   00168A  6A0E               	clrf	gpio_keypad_init@Retval^0,c
  2362   00168C  EF68  F00B         	goto	l1829
  2363   001690                     l393:
  2364   001690  6A0F               	clrf	gpio_keypad_init@i^0,c
  2365   001692                     l1813:
  2366   001692  500D               	movf	gpio_keypad_init@keypad^0,w,c
  2367   001694  240F               	addwf	gpio_keypad_init@i^0,w,c
  2368   001696  6E0A               	movwf	gpio_pin_init@pin^0,c
  2369   001698  EC0F  F00B         	call	_gpio_pin_init	;wreg free
  2370   00169C  2A0F               	incf	gpio_keypad_init@i^0,f,c
  2371   00169E  0E03               	movlw	3
  2372   0016A0  640F               	cpfsgt	gpio_keypad_init@i^0,c
  2373   0016A2  EF55  F00B         	goto	u1151
  2374   0016A6  EF57  F00B         	goto	u1150
  2375   0016AA                     u1151:
  2376   0016AA  EF49  F00B         	goto	l1813
  2377   0016AE                     u1150:
  2378   0016AE  6A10               	clrf	gpio_keypad_init@j^0,c
  2379   0016B0                     l1823:
  2380   0016B0  500D               	movf	gpio_keypad_init@keypad^0,w,c
  2381   0016B2  2410               	addwf	gpio_keypad_init@j^0,w,c
  2382   0016B4  0F04               	addlw	4
  2383   0016B6  6E01               	movwf	gpio_pin_direction_init@pin^0,c
  2384   0016B8  EC18  F008         	call	_gpio_pin_direction_init	;wreg free
  2385   0016BC  6E0E               	movwf	gpio_keypad_init@Retval^0,c
  2386   0016BE  2A10               	incf	gpio_keypad_init@j^0,f,c
  2387   0016C0  0E03               	movlw	3
  2388   0016C2  6410               	cpfsgt	gpio_keypad_init@j^0,c
  2389   0016C4  EF66  F00B         	goto	u1161
  2390   0016C8  EF68  F00B         	goto	u1160
  2391   0016CC                     u1161:
  2392   0016CC  EF58  F00B         	goto	l1823
  2393   0016D0                     u1160:
  2394   0016D0                     l1829:
  2395   0016D0  500E               	movf	gpio_keypad_init@Retval^0,w,c
  2396   0016D2  0012               	return		;funcret
  2397   0016D4                     __end_of_gpio_keypad_init:
  2398                           	callstack 0
  2399                           
  2400 ;; *************** function _gpio_pin_init *****************
  2401 ;; Defined at:
  2402 ;;		line 103 in file "MCAL/GPIO/hal_gpio.c"
  2403 ;; Parameters:    Size  Location     Type
  2404 ;;  pin             1    9[COMRAM] PTR const struct .
  2405 ;;		 -> keypad1$row_pins(4), keypad1(8), 
  2406 ;; Auto vars:     Size  Location     Type
  2407 ;;  Retval          1   11[COMRAM] enum E3659
  2408 ;; Return value:  Size  Location     Type
  2409 ;;                  1    wreg      enum E3659
  2410 ;; Registers used:
  2411 ;;		wreg, fsr2l, fsr2h, status,2, status,0, tblptrl, tblptrh, tblptru, prodl, prodh, cstack
  2412 ;; Tracked objects:
  2413 ;;		On entry : 0/0
  2414 ;;		On exit  : 0/0
  2415 ;;		Unchanged: 0/0
  2416 ;; Data sizes:     COMRAM   BANK0   BANK1   BANK2   BANK3   BANK4   BANK5   BANK6   BANK7   BANK8   BANK9  BANK10  BANK1
      +1  BANK12  BANK13  BANK14  BANK15
  2417 ;;      Params:         1       0       0       0       0       0       0       0       0       0       0       0       
      +0       0       0       0       0
  2418 ;;      Locals:         1       0       0       0       0       0       0       0       0       0       0       0       
      +0       0       0       0       0
  2419 ;;      Temps:          1       0       0       0       0       0       0       0       0       0       0       0       
      +0       0       0       0       0
  2420 ;;      Totals:         3       0       0       0       0       0       0       0       0       0       0       0       
      +0       0       0       0       0
  2421 ;;Total ram usage:        3 bytes
  2422 ;; Hardware stack levels used: 1
  2423 ;; Hardware stack levels required when called: 1
  2424 ;; This function calls:
  2425 ;;		_gpio_pin_direction_init
  2426 ;;		_gpio_pin_write_logic
  2427 ;; This function is called by:
  2428 ;;		_gpio_keypad_init
  2429 ;;		_gpio_segment_init
  2430 ;;		_gpio_dc_motor_init
  2431 ;;		_gpio_relay_init
  2432 ;; This function uses a non-reentrant model
  2433 ;;
  2434                           
  2435                           	psect	text7
  2436   00161E                     __ptext7:
  2437                           	callstack 0
  2438   00161E                     _gpio_pin_init:
  2439                           	callstack 28
  2440   00161E  500A               	movf	gpio_pin_init@pin^0,w,c
  2441   001620  B4D8               	btfsc	status,2,c
  2442   001622  EF15  F00B         	goto	u1081
  2443   001626  EF17  F00B         	goto	u1080
  2444   00162A                     u1081:
  2445   00162A  EF27  F00B         	goto	l344
  2446   00162E                     u1080:
  2447   00162E  500A               	movf	gpio_pin_init@pin^0,w,c
  2448   001630  6ED9               	movwf	fsr2l,c
  2449   001632  6ADA               	clrf	fsr2h,c
  2450   001634  30DF               	rrcf	223,w,c
  2451   001636  32E8               	rrcf	wreg,f,c
  2452   001638  32E8               	rrcf	wreg,f,c
  2453   00163A  0B07               	andlw	7
  2454   00163C  6E0B               	movwf	??_gpio_pin_init^0,c
  2455   00163E  0E07               	movlw	7
  2456   001640  640B               	cpfsgt	??_gpio_pin_init^0,c
  2457   001642  EF25  F00B         	goto	u1091
  2458   001646  EF27  F00B         	goto	u1090
  2459   00164A                     u1091:
  2460   00164A  EF2A  F00B         	goto	l1787
  2461   00164E                     u1090:
  2462   00164E                     l344:
  2463   00164E  6A0C               	clrf	gpio_pin_init@Retval^0,c
  2464   001650  EF3B  F00B         	goto	l1789
  2465   001654                     l1787:
  2466   001654  C00A  F001         	movff	gpio_pin_init@pin,gpio_pin_direction_init@pin
  2467   001658  EC18  F008         	call	_gpio_pin_direction_init	;wreg free
  2468   00165C  6E0C               	movwf	gpio_pin_init@Retval^0,c
  2469   00165E  C00A  F001         	movff	gpio_pin_init@pin,gpio_pin_write_logic@pin
  2470   001662  500A               	movf	gpio_pin_init@pin^0,w,c
  2471   001664  6ED9               	movwf	fsr2l,c
  2472   001666  6ADA               	clrf	fsr2h,c
  2473   001668  0E00               	movlw	0
  2474   00166A  BEDF               	btfsc	indf2,7,c
  2475   00166C  0E01               	movlw	1
  2476   00166E  6E02               	movwf	gpio_pin_write_logic@logic^0,c
  2477   001670  ECAA  F008         	call	_gpio_pin_write_logic	;wreg free
  2478   001674  6E0C               	movwf	gpio_pin_init@Retval^0,c
  2479   001676                     l1789:
  2480   001676  500C               	movf	gpio_pin_init@Retval^0,w,c
  2481   001678  0012               	return		;funcret
  2482   00167A                     __end_of_gpio_pin_init:
  2483                           	callstack 0
  2484                           
  2485 ;; *************** function _gpio_pin_write_logic *****************
  2486 ;; Defined at:
  2487 ;;		line 60 in file "MCAL/GPIO/hal_gpio.c"
  2488 ;; Parameters:    Size  Location     Type
  2489 ;;  pin             1    0[COMRAM] PTR const struct .
  2490 ;;		 -> keypad1$row_pins(4), keypad1(8), led1(3), 
  2491 ;;  logic           1    1[COMRAM] enum E3693
  2492 ;; Auto vars:     Size  Location     Type
  2493 ;;  Retval          1    8[COMRAM] enum E3659
  2494 ;; Return value:  Size  Location     Type
  2495 ;;                  1    wreg      enum E3659
  2496 ;; Registers used:
  2497 ;;		wreg, fsr2l, fsr2h, status,2, status,0, tblptrl, tblptrh, tblptru, prodl, prodh
  2498 ;; Tracked objects:
  2499 ;;		On entry : 0/0
  2500 ;;		On exit  : 0/0
  2501 ;;		Unchanged: 0/0
  2502 ;; Data sizes:     COMRAM   BANK0   BANK1   BANK2   BANK3   BANK4   BANK5   BANK6   BANK7   BANK8   BANK9  BANK10  BANK1
      +1  BANK12  BANK13  BANK14  BANK15
  2503 ;;      Params:         2       0       0       0       0       0       0       0       0       0       0       0       
      +0       0       0       0       0
  2504 ;;      Locals:         1       0       0       0       0       0       0       0       0       0       0       0       
      +0       0       0       0       0
  2505 ;;      Temps:          6       0       0       0       0       0       0       0       0       0       0       0       
      +0       0       0       0       0
  2506 ;;      Totals:         9       0       0       0       0       0       0       0       0       0       0       0       
      +0       0       0       0       0
  2507 ;;Total ram usage:        9 bytes
  2508 ;; Hardware stack levels used: 1
  2509 ;; This function calls:
  2510 ;;		Nothing
  2511 ;; This function is called by:
  2512 ;;		_gpio_led_init
  2513 ;;		_gpio_led_turn_off
  2514 ;;		_gpio_led_turn_on
  2515 ;;		_gpio_pin_init
  2516 ;;		_gpio_keypad_read_data
  2517 ;;		_gpio_segment_write_number
  2518 ;;		_gpio_dc_motor_brake
  2519 ;;		_gpio_dc_motor_rotate_clock_wise
  2520 ;;		_gpio_dc_motor_rotate_counter_clock_wise
  2521 ;;		_gpio_relay_turn_off
  2522 ;;		_gpio_relay_turn_on
  2523 ;; This function uses a non-reentrant model
  2524 ;;
  2525                           
  2526                           	psect	text8
  2527   001154                     __ptext8:
  2528                           	callstack 0
  2529   001154                     _gpio_pin_write_logic:
  2530                           	callstack 29
  2531   001154  0E01               	movlw	1
  2532   001156  6E09               	movwf	gpio_pin_write_logic@Retval^0,c
  2533   001158  5001               	movf	gpio_pin_write_logic@pin^0,w,c
  2534   00115A  B4D8               	btfsc	status,2,c
  2535   00115C  EFB2  F008         	goto	u991
  2536   001160  EFB4  F008         	goto	u990
  2537   001164                     u991:
  2538   001164  EFC4  F008         	goto	l318
  2539   001168                     u990:
  2540   001168  5001               	movf	gpio_pin_write_logic@pin^0,w,c
  2541   00116A  6ED9               	movwf	fsr2l,c
  2542   00116C  6ADA               	clrf	fsr2h,c
  2543   00116E  30DF               	rrcf	223,w,c
  2544   001170  32E8               	rrcf	wreg,f,c
  2545   001172  32E8               	rrcf	wreg,f,c
  2546   001174  0B07               	andlw	7
  2547   001176  6E03               	movwf	??_gpio_pin_write_logic^0,c
  2548   001178  0E07               	movlw	7
  2549   00117A  6403               	cpfsgt	??_gpio_pin_write_logic^0,c
  2550   00117C  EFC2  F008         	goto	u1001
  2551   001180  EFC4  F008         	goto	u1000
  2552   001184                     u1001:
  2553   001184  EF24  F009         	goto	l1757
  2554   001188                     u1000:
  2555   001188                     l318:
  2556   001188  6A09               	clrf	gpio_pin_write_logic@Retval^0,c
  2557   00118A  EF39  F009         	goto	l1759
  2558   00118E                     l1751:
  2559   00118E  5001               	movf	gpio_pin_write_logic@pin^0,w,c
  2560   001190  6ED9               	movwf	fsr2l,c
  2561   001192  6ADA               	clrf	fsr2h,c
  2562   001194  30DF               	rrcf	223,w,c
  2563   001196  32E8               	rrcf	wreg,f,c
  2564   001198  32E8               	rrcf	wreg,f,c
  2565   00119A  0B07               	andlw	7
  2566   00119C  6E03               	movwf	??_gpio_pin_write_logic^0,c
  2567   00119E  0E01               	movlw	1
  2568   0011A0  6E04               	movwf	(??_gpio_pin_write_logic+1)^0,c
  2569   0011A2  2A03               	incf	??_gpio_pin_write_logic^0,f,c
  2570   0011A4  EFD6  F008         	goto	u1014
  2571   0011A8                     u1015:
  2572   0011A8  90D8               	bcf	status,0,c
  2573   0011AA  3604               	rlcf	(??_gpio_pin_write_logic+1)^0,f,c
  2574   0011AC                     u1014:
  2575   0011AC  2E03               	decfsz	??_gpio_pin_write_logic^0,f,c
  2576   0011AE  EFD4  F008         	goto	u1015
  2577   0011B2  5004               	movf	(??_gpio_pin_write_logic+1)^0,w,c
  2578   0011B4  0AFF               	xorlw	255
  2579   0011B6  6E05               	movwf	(??_gpio_pin_write_logic+2)^0,c
  2580   0011B8  5001               	movf	gpio_pin_write_logic@pin^0,w,c
  2581   0011BA  6ED9               	movwf	fsr2l,c
  2582   0011BC  6ADA               	clrf	fsr2h,c
  2583   0011BE  50DF               	movf	223,w,c
  2584   0011C0  0B07               	andlw	7
  2585   0011C2  0D02               	mullw	2
  2586   0011C4  50F3               	movf	243,w,c
  2587   0011C6  0F11               	addlw	low _lat_regs
  2588   0011C8  6E06               	movwf	(??_gpio_pin_write_logic+3)^0,c
  2589   0011CA  C006  FFF6         	movff	??_gpio_pin_write_logic+3,tblptrl
  2590   0011CE                     	if	1	;There is more than 1 active tblptr byte
  2591   0011CE  0E10               	movlw	high __smallconst
  2592   0011D0  6EF7               	movwf	tblptrh,c
  2593   0011D2                     	endif
  2594   0011D2                     	if	0	;tblptru may be non-zero
  2595   0011D2                     	endif
  2596   0011D2                     	if	0	;tblptru may be non-zero
  2597   0011D2                     	endif
  2598   0011D2  0009               	tblrd		*+
  2599   0011D4  CFF5 F007          	movff	tablat,??_gpio_pin_write_logic+4
  2600   0011D8  0009               	tblrd		*+
  2601   0011DA  CFF5 F008          	movff	tablat,??_gpio_pin_write_logic+5
  2602   0011DE  C007  FFD9         	movff	??_gpio_pin_write_logic+4,fsr2l
  2603   0011E2  C008  FFDA         	movff	??_gpio_pin_write_logic+5,fsr2h
  2604   0011E6  5005               	movf	(??_gpio_pin_write_logic+2)^0,w,c
  2605   0011E8  16DF               	andwf	indf2,f,c
  2606   0011EA  EF39  F009         	goto	l1759
  2607   0011EE                     l1753:
  2608   0011EE  5001               	movf	gpio_pin_write_logic@pin^0,w,c
  2609   0011F0  6ED9               	movwf	fsr2l,c
  2610   0011F2  6ADA               	clrf	fsr2h,c
  2611   0011F4  30DF               	rrcf	223,w,c
  2612   0011F6  32E8               	rrcf	wreg,f,c
  2613   0011F8  32E8               	rrcf	wreg,f,c
  2614   0011FA  0B07               	andlw	7
  2615   0011FC  6E03               	movwf	??_gpio_pin_write_logic^0,c
  2616   0011FE  0E01               	movlw	1
  2617   001200  6E04               	movwf	(??_gpio_pin_write_logic+1)^0,c
  2618   001202  2A03               	incf	??_gpio_pin_write_logic^0,f,c
  2619   001204  EF06  F009         	goto	u1024
  2620   001208                     u1025:
  2621   001208  90D8               	bcf	status,0,c
  2622   00120A  3604               	rlcf	(??_gpio_pin_write_logic+1)^0,f,c
  2623   00120C                     u1024:
  2624   00120C  2E03               	decfsz	??_gpio_pin_write_logic^0,f,c
  2625   00120E  EF04  F009         	goto	u1025
  2626   001212  5001               	movf	gpio_pin_write_logic@pin^0,w,c
  2627   001214  6ED9               	movwf	fsr2l,c
  2628   001216  6ADA               	clrf	fsr2h,c
  2629   001218  50DF               	movf	223,w,c
  2630   00121A  0B07               	andlw	7
  2631   00121C  0D02               	mullw	2
  2632   00121E  50F3               	movf	243,w,c
  2633   001220  0F11               	addlw	low _lat_regs
  2634   001222  6E05               	movwf	(??_gpio_pin_write_logic+2)^0,c
  2635   001224  C005  FFF6         	movff	??_gpio_pin_write_logic+2,tblptrl
  2636   001228                     	if	1	;There is more than 1 active tblptr byte
  2637   001228  0E10               	movlw	high __smallconst
  2638   00122A  6EF7               	movwf	tblptrh,c
  2639   00122C                     	endif
  2640   00122C                     	if	0	;tblptru may be non-zero
  2641   00122C                     	endif
  2642   00122C                     	if	0	;tblptru may be non-zero
  2643   00122C                     	endif
  2644   00122C  0009               	tblrd		*+
  2645   00122E  CFF5 F006          	movff	tablat,??_gpio_pin_write_logic+3
  2646   001232  0009               	tblrd		*+
  2647   001234  CFF5 F007          	movff	tablat,??_gpio_pin_write_logic+4
  2648   001238  C006  FFD9         	movff	??_gpio_pin_write_logic+3,fsr2l
  2649   00123C  C007  FFDA         	movff	??_gpio_pin_write_logic+4,fsr2h
  2650   001240  5004               	movf	(??_gpio_pin_write_logic+1)^0,w,c
  2651   001242  12DF               	iorwf	indf2,f,c
  2652   001244  EF39  F009         	goto	l1759
  2653   001248                     l1757:
  2654   001248  5002               	movf	gpio_pin_write_logic@logic^0,w,c
  2655   00124A  6E03               	movwf	??_gpio_pin_write_logic^0,c
  2656   00124C  6A04               	clrf	(??_gpio_pin_write_logic+1)^0,c
  2657                           
  2658                           ; Switch on 2 bytes has been partitioned into a top level switch of size 1, and 1 sub-sw
      +                          itches
  2659                           ; Switch size 1, requested type "simple"
  2660                           ; Number of cases is 1, Range of values is 0 to 0
  2661                           ; switch strategies available:
  2662                           ; Name         Instructions Cycles
  2663                           ; simple_byte            4     3 (average)
  2664                           ;	Chosen strategy is simple_byte
  2665   00124E  5004               	movf	(??_gpio_pin_write_logic+1)^0,w,c
  2666   001250  0A00               	xorlw	0	; case 0
  2667   001252  B4D8               	btfsc	status,2,c
  2668   001254  EF2E  F009         	goto	l2303
  2669   001258  EFC4  F008         	goto	l318
  2670   00125C                     l2303:
  2671                           
  2672                           ; Switch size 1, requested type "simple"
  2673                           ; Number of cases is 2, Range of values is 0 to 1
  2674                           ; switch strategies available:
  2675                           ; Name         Instructions Cycles
  2676                           ; simple_byte            7     4 (average)
  2677                           ;	Chosen strategy is simple_byte
  2678   00125C  5003               	movf	??_gpio_pin_write_logic^0,w,c
  2679   00125E  0A00               	xorlw	0	; case 0
  2680   001260  B4D8               	btfsc	status,2,c
  2681   001262  EFC7  F008         	goto	l1751
  2682   001266  0A01               	xorlw	1	; case 1
  2683   001268  B4D8               	btfsc	status,2,c
  2684   00126A  EFF7  F008         	goto	l1753
  2685   00126E  EFC4  F008         	goto	l318
  2686   001272                     l1759:
  2687   001272  5009               	movf	gpio_pin_write_logic@Retval^0,w,c
  2688   001274  0012               	return		;funcret
  2689   001276                     __end_of_gpio_pin_write_logic:
  2690                           	callstack 0
  2691                           
  2692 ;; *************** function _gpio_pin_direction_init *****************
  2693 ;; Defined at:
  2694 ;;		line 28 in file "MCAL/GPIO/hal_gpio.c"
  2695 ;; Parameters:    Size  Location     Type
  2696 ;;  pin             1    0[COMRAM] PTR const struct .
  2697 ;;		 -> keypad1$col_pins(4), keypad1$row_pins(4), keypad1(8), led1(3), 
  2698 ;; Auto vars:     Size  Location     Type
  2699 ;;  Retval          1    7[COMRAM] enum E3659
  2700 ;; Return value:  Size  Location     Type
  2701 ;;                  1    wreg      enum E3659
  2702 ;; Registers used:
  2703 ;;		wreg, fsr2l, fsr2h, status,2, status,0, tblptrl, tblptrh, tblptru, prodl, prodh
  2704 ;; Tracked objects:
  2705 ;;		On entry : 0/0
  2706 ;;		On exit  : 0/0
  2707 ;;		Unchanged: 0/0
  2708 ;; Data sizes:     COMRAM   BANK0   BANK1   BANK2   BANK3   BANK4   BANK5   BANK6   BANK7   BANK8   BANK9  BANK10  BANK1
      +1  BANK12  BANK13  BANK14  BANK15
  2709 ;;      Params:         1       0       0       0       0       0       0       0       0       0       0       0       
      +0       0       0       0       0
  2710 ;;      Locals:         1       0       0       0       0       0       0       0       0       0       0       0       
      +0       0       0       0       0
  2711 ;;      Temps:          6       0       0       0       0       0       0       0       0       0       0       0       
      +0       0       0       0       0
  2712 ;;      Totals:         8       0       0       0       0       0       0       0       0       0       0       0       
      +0       0       0       0       0
  2713 ;;Total ram usage:        8 bytes
  2714 ;; Hardware stack levels used: 1
  2715 ;; This function calls:
  2716 ;;		Nothing
  2717 ;; This function is called by:
  2718 ;;		_gpio_led_init
  2719 ;;		_gpio_pin_init
  2720 ;;		_gpio_keypad_init
  2721 ;;		_gpio_btn_init
  2722 ;; This function uses a non-reentrant model
  2723 ;;
  2724                           
  2725                           	psect	text9
  2726   001030                     __ptext9:
  2727                           	callstack 0
  2728   001030                     _gpio_pin_direction_init:
  2729                           	callstack 29
  2730   001030  0E01               	movlw	1
  2731   001032  6E08               	movwf	gpio_pin_direction_init@Retval^0,c
  2732   001034  5001               	movf	gpio_pin_direction_init@pin^0,w,c
  2733   001036  B4D8               	btfsc	status,2,c
  2734   001038  EF20  F008         	goto	u1031
  2735   00103C  EF22  F008         	goto	u1030
  2736   001040                     u1031:
  2737   001040  EF32  F008         	goto	l299
  2738   001044                     u1030:
  2739   001044  5001               	movf	gpio_pin_direction_init@pin^0,w,c
  2740   001046  6ED9               	movwf	fsr2l,c
  2741   001048  6ADA               	clrf	fsr2h,c
  2742   00104A  30DF               	rrcf	223,w,c
  2743   00104C  32E8               	rrcf	wreg,f,c
  2744   00104E  32E8               	rrcf	wreg,f,c
  2745   001050  0B07               	andlw	7
  2746   001052  6E02               	movwf	??_gpio_pin_direction_init^0,c
  2747   001054  0E07               	movlw	7
  2748   001056  6402               	cpfsgt	??_gpio_pin_direction_init^0,c
  2749   001058  EF30  F008         	goto	u1041
  2750   00105C  EF32  F008         	goto	u1040
  2751   001060                     u1041:
  2752   001060  EF92  F008         	goto	l1777
  2753   001064                     u1040:
  2754   001064                     l299:
  2755   001064  6A08               	clrf	gpio_pin_direction_init@Retval^0,c
  2756   001066  EFA8  F008         	goto	l1779
  2757   00106A                     l1771:
  2758   00106A  5001               	movf	gpio_pin_direction_init@pin^0,w,c
  2759   00106C  6ED9               	movwf	fsr2l,c
  2760   00106E  6ADA               	clrf	fsr2h,c
  2761   001070  30DF               	rrcf	223,w,c
  2762   001072  32E8               	rrcf	wreg,f,c
  2763   001074  32E8               	rrcf	wreg,f,c
  2764   001076  0B07               	andlw	7
  2765   001078  6E02               	movwf	??_gpio_pin_direction_init^0,c
  2766   00107A  0E01               	movlw	1
  2767   00107C  6E03               	movwf	(??_gpio_pin_direction_init+1)^0,c
  2768   00107E  2A02               	incf	??_gpio_pin_direction_init^0,f,c
  2769   001080  EF44  F008         	goto	u1054
  2770   001084                     u1055:
  2771   001084  90D8               	bcf	status,0,c
  2772   001086  3603               	rlcf	(??_gpio_pin_direction_init+1)^0,f,c
  2773   001088                     u1054:
  2774   001088  2E02               	decfsz	??_gpio_pin_direction_init^0,f,c
  2775   00108A  EF42  F008         	goto	u1055
  2776   00108E  5003               	movf	(??_gpio_pin_direction_init+1)^0,w,c
  2777   001090  0AFF               	xorlw	255
  2778   001092  6E04               	movwf	(??_gpio_pin_direction_init+2)^0,c
  2779   001094  5001               	movf	gpio_pin_direction_init@pin^0,w,c
  2780   001096  6ED9               	movwf	fsr2l,c
  2781   001098  6ADA               	clrf	fsr2h,c
  2782   00109A  50DF               	movf	223,w,c
  2783   00109C  0B07               	andlw	7
  2784   00109E  0D02               	mullw	2
  2785   0010A0  50F3               	movf	243,w,c
  2786   0010A2  0F25               	addlw	low _tris_regs
  2787   0010A4  6E05               	movwf	(??_gpio_pin_direction_init+3)^0,c
  2788   0010A6  C005  FFF6         	movff	??_gpio_pin_direction_init+3,tblptrl
  2789   0010AA                     	if	1	;There is more than 1 active tblptr byte
  2790   0010AA  0E10               	movlw	high __smallconst
  2791   0010AC  6EF7               	movwf	tblptrh,c
  2792   0010AE                     	endif
  2793   0010AE                     	if	0	;tblptru may be non-zero
  2794   0010AE                     	endif
  2795   0010AE                     	if	0	;tblptru may be non-zero
  2796   0010AE                     	endif
  2797   0010AE  0009               	tblrd		*+
  2798   0010B0  CFF5 F006          	movff	tablat,??_gpio_pin_direction_init+4
  2799   0010B4  0009               	tblrd		*+
  2800   0010B6  CFF5 F007          	movff	tablat,??_gpio_pin_direction_init+5
  2801   0010BA  C006  FFD9         	movff	??_gpio_pin_direction_init+4,fsr2l
  2802   0010BE  C007  FFDA         	movff	??_gpio_pin_direction_init+5,fsr2h
  2803   0010C2  5004               	movf	(??_gpio_pin_direction_init+2)^0,w,c
  2804   0010C4  16DF               	andwf	indf2,f,c
  2805   0010C6  EFA8  F008         	goto	l1779
  2806   0010CA                     l1773:
  2807   0010CA  5001               	movf	gpio_pin_direction_init@pin^0,w,c
  2808   0010CC  6ED9               	movwf	fsr2l,c
  2809   0010CE  6ADA               	clrf	fsr2h,c
  2810   0010D0  30DF               	rrcf	223,w,c
  2811   0010D2  32E8               	rrcf	wreg,f,c
  2812   0010D4  32E8               	rrcf	wreg,f,c
  2813   0010D6  0B07               	andlw	7
  2814   0010D8  6E02               	movwf	??_gpio_pin_direction_init^0,c
  2815   0010DA  0E01               	movlw	1
  2816   0010DC  6E03               	movwf	(??_gpio_pin_direction_init+1)^0,c
  2817   0010DE  2A02               	incf	??_gpio_pin_direction_init^0,f,c
  2818   0010E0  EF74  F008         	goto	u1064
  2819   0010E4                     u1065:
  2820   0010E4  90D8               	bcf	status,0,c
  2821   0010E6  3603               	rlcf	(??_gpio_pin_direction_init+1)^0,f,c
  2822   0010E8                     u1064:
  2823   0010E8  2E02               	decfsz	??_gpio_pin_direction_init^0,f,c
  2824   0010EA  EF72  F008         	goto	u1065
  2825   0010EE  5001               	movf	gpio_pin_direction_init@pin^0,w,c
  2826   0010F0  6ED9               	movwf	fsr2l,c
  2827   0010F2  6ADA               	clrf	fsr2h,c
  2828   0010F4  50DF               	movf	223,w,c
  2829   0010F6  0B07               	andlw	7
  2830   0010F8  0D02               	mullw	2
  2831   0010FA  50F3               	movf	243,w,c
  2832   0010FC  0F25               	addlw	low _tris_regs
  2833   0010FE  6E04               	movwf	(??_gpio_pin_direction_init+2)^0,c
  2834   001100  C004  FFF6         	movff	??_gpio_pin_direction_init+2,tblptrl
  2835   001104                     	if	1	;There is more than 1 active tblptr byte
  2836   001104  0E10               	movlw	high __smallconst
  2837   001106  6EF7               	movwf	tblptrh,c
  2838   001108                     	endif
  2839   001108                     	if	0	;tblptru may be non-zero
  2840   001108                     	endif
  2841   001108                     	if	0	;tblptru may be non-zero
  2842   001108                     	endif
  2843   001108  0009               	tblrd		*+
  2844   00110A  CFF5 F005          	movff	tablat,??_gpio_pin_direction_init+3
  2845   00110E  0009               	tblrd		*+
  2846   001110  CFF5 F006          	movff	tablat,??_gpio_pin_direction_init+4
  2847   001114  C005  FFD9         	movff	??_gpio_pin_direction_init+3,fsr2l
  2848   001118  C006  FFDA         	movff	??_gpio_pin_direction_init+4,fsr2h
  2849   00111C  5003               	movf	(??_gpio_pin_direction_init+1)^0,w,c
  2850   00111E  12DF               	iorwf	indf2,f,c
  2851   001120  EFA8  F008         	goto	l1779
  2852   001124                     l1777:
  2853   001124  5001               	movf	gpio_pin_direction_init@pin^0,w,c
  2854   001126  6ED9               	movwf	fsr2l,c
  2855   001128  6ADA               	clrf	fsr2h,c
  2856   00112A  BCDF               	btfsc	indf2,6,c
  2857   00112C  EF9A  F008         	goto	u1071
  2858   001130  EF9D  F008         	goto	u1070
  2859   001134                     u1071:
  2860   001134  0E01               	movlw	1
  2861   001136  EF9E  F008         	goto	u1076
  2862   00113A                     u1070:
  2863   00113A  0E00               	movlw	0
  2864   00113C                     u1076:
  2865                           
  2866                           ; Switch size 1, requested type "simple"
  2867                           ; Number of cases is 2, Range of values is 0 to 1
  2868                           ; switch strategies available:
  2869                           ; Name         Instructions Cycles
  2870                           ; simple_byte            7     4 (average)
  2871                           ;	Chosen strategy is simple_byte
  2872   00113C  0A00               	xorlw	0	; case 0
  2873   00113E  B4D8               	btfsc	status,2,c
  2874   001140  EF35  F008         	goto	l1771
  2875   001144  0A01               	xorlw	1	; case 1
  2876   001146  B4D8               	btfsc	status,2,c
  2877   001148  EF65  F008         	goto	l1773
  2878   00114C  EF32  F008         	goto	l299
  2879   001150                     l1779:
  2880   001150  5008               	movf	gpio_pin_direction_init@Retval^0,w,c
  2881   001152  0012               	return		;funcret
  2882   001154                     __end_of_gpio_pin_direction_init:
  2883                           	callstack 0
  2884                           
  2885                           	psect	rparam
  2886   000001                     ___rparam_used  equ	1
  2887   000000                     ___param_bank   equ	0
  2888   000000                     __Lparam        equ	__Lrparam
  2889   000000                     __Hparam        equ	__Hrparam
  2890                           
  2891                           	psect	config
  2892                           
  2893                           ; Padding undefined space
  2894   300000                     	org	3145728
  2895   300000  FF                 	db	255
  2896                           
  2897                           ;Config register CONFIG1H @ 0x300001
  2898                           ;	Oscillator Selection bits
  2899                           ;	FOSC = HS, HS oscillator
  2900                           ;	Fail-Safe Clock Monitor Enable bit
  2901                           ;	FCMEN = OFF, Fail-Safe Clock Monitor disabled
  2902                           ;	Internal/External Oscillator Switchover bit
  2903                           ;	IESO = OFF, Oscillator Switchover mode disabled
  2904   300001                     	org	3145729
  2905   300001  02                 	db	2
  2906                           
  2907                           ;Config register CONFIG2L @ 0x300002
  2908                           ;	Power-up Timer Enable bit
  2909                           ;	PWRTEN = OFF, PWRT disabled
  2910                           ;	Brown-out Reset Enable bits
  2911                           ;	BOREN = OFF, Brown-out Reset disabled in hardware and software
  2912                           ;	Brown Out Reset Voltage bits
  2913                           ;	BORV = 27, VBOR set to 2.7 V nominal
  2914   300002                     	org	3145730
  2915   300002  09                 	db	9
  2916                           
  2917                           ;Config register CONFIG2H @ 0x300003
  2918                           ;	Watchdog Timer Enable bit
  2919                           ;	WDTEN = OFF, WDT is controlled by SWDTEN bit of the WDTCON register
  2920                           ;	Watchdog Timer Postscale Select bits
  2921                           ;	WDTPS = 32768, 1:32768
  2922   300003                     	org	3145731
  2923   300003  1E                 	db	30
  2924                           
  2925                           ; Padding undefined space
  2926   300004                     	org	3145732
  2927   300004  FF                 	db	255
  2928                           
  2929                           ;Config register CONFIG3H @ 0x300005
  2930                           ;	CCP2 MUX bit
  2931                           ;	CCP2MX = PORTC, CCP2 input/output is multiplexed with RC1
  2932                           ;	PORTB A/D Enable bit
  2933                           ;	PBADEN = OFF, PORTB<4:0> pins are configured as digital I/O on Reset
  2934                           ;	Low-Power Timer1 Oscillator Enable bit
  2935                           ;	LPT1OSC = OFF, Timer1 configured for higher power operation
  2936                           ;	HFINTOSC Fast Start-up
  2937                           ;	HFOFST = OFF, The system clock is held off until the HFINTOSC is stable.
  2938                           ;	MCLR Pin Enable bit
  2939                           ;	MCLRE = ON, MCLR pin enabled; RE3 input pin disabled
  2940   300005                     	org	3145733
  2941   300005  81                 	db	129
  2942                           
  2943                           ;Config register CONFIG4L @ 0x300006
  2944                           ;	Stack Full/Underflow Reset Enable bit
  2945                           ;	STVREN = ON, Stack full/underflow will cause Reset
  2946                           ;	Single-Supply ICSP Enable bit
  2947                           ;	LVP = OFF, Single-Supply ICSP disabled
  2948                           ;	Extended Instruction Set Enable bit
  2949                           ;	XINST = OFF, Instruction set extension and Indexed Addressing mode disabled (Legacy mo
      +                          de)
  2950                           ;	Background Debugger Enable bit
  2951                           ;	DEBUG = 0x1, unprogrammed default
  2952   300006                     	org	3145734
  2953   300006  81                 	db	129
  2954                           
  2955                           ; Padding undefined space
  2956   300007                     	org	3145735
  2957   300007  FF                 	db	255
  2958                           
  2959                           ;Config register CONFIG5L @ 0x300008
  2960                           ;	Code Protection Block 0
  2961                           ;	CP0 = OFF, Block 0 (000800-003FFFh) not code-protected
  2962                           ;	Code Protection Block 1
  2963                           ;	CP1 = OFF, Block 1 (004000-007FFFh) not code-protected
  2964                           ;	Code Protection Block 2
  2965                           ;	CP2 = OFF, Block 2 (008000-00BFFFh) not code-protected
  2966                           ;	Code Protection Block 3
  2967                           ;	CP3 = OFF, Block 3 (00C000-00FFFFh) not code-protected
  2968   300008                     	org	3145736
  2969   300008  0F                 	db	15
  2970                           
  2971                           ;Config register CONFIG5H @ 0x300009
  2972                           ;	Boot Block Code Protection bit
  2973                           ;	CPB = OFF, Boot block (000000-0007FFh) not code-protected
  2974                           ;	Data EEPROM Code Protection bit
  2975                           ;	CPD = OFF, Data EEPROM not code-protected
  2976   300009                     	org	3145737
  2977   300009  C0                 	db	192
  2978                           
  2979                           ;Config register CONFIG6L @ 0x30000A
  2980                           ;	Write Protection Block 0
  2981                           ;	WRT0 = OFF, Block 0 (000800-003FFFh) not write-protected
  2982                           ;	Write Protection Block 1
  2983                           ;	WRT1 = OFF, Block 1 (004000-007FFFh) not write-protected
  2984                           ;	Write Protection Block 2
  2985                           ;	WRT2 = OFF, Block 2 (008000-00BFFFh) not write-protected
  2986                           ;	Write Protection Block 3
  2987                           ;	WRT3 = OFF, Block 3 (00C000h-00FFFFh) not write-protected
  2988   30000A                     	org	3145738
  2989   30000A  0F                 	db	15
  2990                           
  2991                           ;Config register CONFIG6H @ 0x30000B
  2992                           ;	Configuration Register Write Protection bit
  2993                           ;	WRTC = OFF, Configuration registers (300000-3000FFh) not write-protected
  2994                           ;	Boot Block Write Protection bit
  2995                           ;	WRTB = OFF, Boot Block (000000-0007FFh) not write-protected
  2996                           ;	Data EEPROM Write Protection bit
  2997                           ;	WRTD = OFF, Data EEPROM not write-protected
  2998   30000B                     	org	3145739
  2999   30000B  E0                 	db	224
  3000                           
  3001                           ;Config register CONFIG7L @ 0x30000C
  3002                           ;	Table Read Protection Block 0
  3003                           ;	EBTR0 = OFF, Block 0 (000800-003FFFh) not protected from table reads executed in other
      +                           blocks
  3004                           ;	Table Read Protection Block 1
  3005                           ;	EBTR1 = OFF, Block 1 (004000-007FFFh) not protected from table reads executed in other
      +                           blocks
  3006                           ;	Table Read Protection Block 2
  3007                           ;	EBTR2 = OFF, Block 2 (008000-00BFFFh) not protected from table reads executed in other
      +                           blocks
  3008                           ;	Table Read Protection Block 3
  3009                           ;	EBTR3 = OFF, Block 3 (00C000-00FFFFh) not protected from table reads executed in other
      +                           blocks
  3010   30000C                     	org	3145740
  3011   30000C  0F                 	db	15
  3012                           
  3013                           ;Config register CONFIG7H @ 0x30000D
  3014                           ;	Boot Block Table Read Protection bit
  3015                           ;	EBTRB = OFF, Boot Block (000000-0007FFh) not protected from table reads executed in ot
      +                          her blocks
  3016   30000D                     	org	3145741
  3017   30000D  40                 	db	64
  3018                           tosu	equ	0xFFF
  3019                           tosh	equ	0xFFE
  3020                           tosl	equ	0xFFD
  3021                           stkptr	equ	0xFFC
  3022                           pclatu	equ	0xFFB
  3023                           pclath	equ	0xFFA
  3024                           pcl	equ	0xFF9
  3025                           tblptru	equ	0xFF8
  3026                           tblptrh	equ	0xFF7
  3027                           tblptrl	equ	0xFF6
  3028                           tablat	equ	0xFF5
  3029                           prodh	equ	0xFF4
  3030                           prodl	equ	0xFF3
  3031                           indf0	equ	0xFEF
  3032                           postinc0	equ	0xFEE
  3033                           postdec0	equ	0xFED
  3034                           preinc0	equ	0xFEC
  3035                           plusw0	equ	0xFEB
  3036                           fsr0h	equ	0xFEA
  3037                           fsr0l	equ	0xFE9
  3038                           wreg	equ	0xFE8
  3039                           indf1	equ	0xFE7
  3040                           postinc1	equ	0xFE6
  3041                           postdec1	equ	0xFE5
  3042                           preinc1	equ	0xFE4
  3043                           plusw1	equ	0xFE3
  3044                           fsr1h	equ	0xFE2
  3045                           fsr1l	equ	0xFE1
  3046                           bsr	equ	0xFE0
  3047                           indf2	equ	0xFDF
  3048                           postinc2	equ	0xFDE
  3049                           postdec2	equ	0xFDD
  3050                           preinc2	equ	0xFDC
  3051                           plusw2	equ	0xFDB
  3052                           fsr2h	equ	0xFDA
  3053                           fsr2l	equ	0xFD9
  3054                           status	equ	0xFD8

Data Sizes:
    Strings     0
    Constant    46
    Data        15
    BSS         3
    Persistent  0
    Stack       0

Auto Spaces:
    Space          Size  Autos    Used
    COMRAM           95     20      38
    BANK0           160      0       0
    BANK1           256      0       0
    BANK2           256      0       0
    BANK3           256      0       0
    BANK4           256      0       0
    BANK5           256      0       0
    BANK6           256      0       0
    BANK7           256      0       0
    BANK8           256      0       0
    BANK9           256      0       0
    BANK10          256      0       0
    BANK11          256      0       0
    BANK12          256      0       0
    BANK13          256      0       0
    BANK14          256      0       0
    BANK15           96      0       0

Pointer List with Targets:

    gpio_keypad_init@keypad	PTR const struct . size(1) Largest target is 8
		 -> keypad1(COMRAM[8]), 

    gpio_keypad_read_data@data	PTR unsigned char  size(1) Largest target is 1
		 -> data13(COMRAM[1]), 

    gpio_keypad_read_data@keypad	PTR const struct . size(1) Largest target is 8
		 -> keypad1(COMRAM[8]), 

    gpio_led_init@led	PTR const struct . size(1) Largest target is 3
		 -> led1(COMRAM[3]), 

    gpio_led_turn_off@led	PTR const struct . size(1) Largest target is 3
		 -> led1(COMRAM[3]), 

    gpio_led_turn_on@led	PTR const struct . size(1) Largest target is 3
		 -> led1(COMRAM[3]), 

    gpio_pin_direction_init@pin	PTR const struct . size(1) Largest target is 8
		 -> keypad1(COMRAM[8]), keypad1$col_pins(COMRAM[4]), keypad1$row_pins(COMRAM[4]), led1(COMRAM[3]), 

    gpio_pin_init@pin	PTR const struct . size(1) Largest target is 8
		 -> keypad1(COMRAM[8]), keypad1$row_pins(COMRAM[4]), 

    gpio_pin_read_logic@logic	PTR enum E3693 size(1) Largest target is 2
		 -> gpio_btn_read_status@logic(COMRAM[1]), gpio_dc_motor_read_state@logic(COMRAM[2]), gpio_keypad_read_data@read(COMRAM[1]), gpio_led_read_logic@status(COMRAM[1]), 
		 -> gpio_relay_read_logic@logic(COMRAM[1]), gpio_segment_read_number@logic(COMRAM[1]), 

    gpio_pin_read_logic@pin	PTR const struct . size(1) Largest target is 8
		 -> keypad1(COMRAM[8]), keypad1$col_pins(COMRAM[4]), 

    gpio_pin_write_logic@pin	PTR const struct . size(1) Largest target is 8
		 -> keypad1(COMRAM[8]), keypad1$row_pins(COMRAM[4]), led1(COMRAM[3]), 

    lat_regs	const PTR volatile unsigned char [5] size(2) Largest target is 1
		 -> LATA(BIGSFR[1]), LATB(BIGSFR[1]), LATC(BIGSFR[1]), LATD(BIGSFR[1]), 
		 -> LATE(BIGSFR[1]), 

    port_regs	const PTR volatile unsigned char [5] size(2) Largest target is 1
		 -> PORTA(BIGSFR[1]), PORTB(BIGSFR[1]), PORTC(BIGSFR[1]), PORTD(BIGSFR[1]), 
		 -> PORTE(BIGSFR[1]), 

    tris_regs	const PTR volatile unsigned char [5] size(2) Largest target is 1
		 -> TRISA(BIGSFR[1]), TRISB(BIGSFR[1]), TRISC(BIGSFR[1]), TRISD(BIGSFR[1]), 
		 -> TRISE(BIGSFR[1]), 


Critical Paths under _main in COMRAM

    _main->_gpio_keypad_read_data
    _gpio_led_turn_on->_gpio_pin_write_logic
    _gpio_led_turn_off->_gpio_pin_write_logic
    _gpio_led_init->_gpio_pin_write_logic
    _gpio_keypad_read_data->_gpio_pin_write_logic
    _gpio_keypad_init->_gpio_pin_init
    _gpio_pin_init->_gpio_pin_write_logic

Critical Paths under _main in BANK0

    None.

Critical Paths under _main in BANK1

    None.

Critical Paths under _main in BANK2

    None.

Critical Paths under _main in BANK3

    None.

Critical Paths under _main in BANK4

    None.

Critical Paths under _main in BANK5

    None.

Critical Paths under _main in BANK6

    None.

Critical Paths under _main in BANK7

    None.

Critical Paths under _main in BANK8

    None.

Critical Paths under _main in BANK9

    None.

Critical Paths under _main in BANK10

    None.

Critical Paths under _main in BANK11

    None.

Critical Paths under _main in BANK12

    None.

Critical Paths under _main in BANK13

    None.

Critical Paths under _main in BANK14

    None.

Critical Paths under _main in BANK15

    None.

Call Graph Tables:

 ---------------------------------------------------------------------------------
 (Depth) Function   	        Calls       Base Space   Used Autos Params    Refs
 ---------------------------------------------------------------------------------
 (0) _main                                                 1     1      0    3184
                                             19 COMRAM     1     1      0
                   _gpio_keypad_init
              _gpio_keypad_read_data
                      _gpio_led_init
                  _gpio_led_turn_off
                   _gpio_led_turn_on
 ---------------------------------------------------------------------------------
 (1) _gpio_led_turn_on                                     5     4      1     369
                                              9 COMRAM     4     3      1
               _gpio_pin_write_logic
 ---------------------------------------------------------------------------------
 (1) _gpio_led_turn_off                                    5     4      1     369
                                              9 COMRAM     4     3      1
               _gpio_pin_write_logic
 ---------------------------------------------------------------------------------
 (1) _gpio_led_init                                        5     4      1     622
                                              9 COMRAM     5     4      1
            _gpio_pin_direction_init
               _gpio_pin_write_logic
 ---------------------------------------------------------------------------------
 (1) _gpio_keypad_read_data                               10     8      2     876
                                              9 COMRAM    10     8      2
                _gpio_pin_read_logic
               _gpio_pin_write_logic
 ---------------------------------------------------------------------------------
 (2) _gpio_pin_read_logic                                  8     6      2     168
                                              0 COMRAM     8     6      2
 ---------------------------------------------------------------------------------
 (1) _gpio_keypad_init                                     4     3      1     942
                                             12 COMRAM     4     3      1
            _gpio_pin_direction_init
                      _gpio_pin_init
 ---------------------------------------------------------------------------------
 (2) _gpio_pin_init                                        3     2      1     530
                                              9 COMRAM     3     2      1
            _gpio_pin_direction_init
               _gpio_pin_write_logic
 ---------------------------------------------------------------------------------
 (2) _gpio_pin_write_logic                                 9     7      2     207
                                              0 COMRAM     9     7      2
 ---------------------------------------------------------------------------------
 (2) _gpio_pin_direction_init                              8     7      1     183
                                              0 COMRAM     8     7      1
 ---------------------------------------------------------------------------------
 Estimated maximum stack depth 2
 ---------------------------------------------------------------------------------

 Call Graph Graphs:

 _main (ROOT)
   _gpio_keypad_init
     _gpio_pin_direction_init
     _gpio_pin_init
       _gpio_pin_direction_init
       _gpio_pin_write_logic
   _gpio_keypad_read_data
     _gpio_pin_read_logic
     _gpio_pin_write_logic
   _gpio_led_init
     _gpio_pin_direction_init
     _gpio_pin_write_logic
   _gpio_led_turn_off
     _gpio_pin_write_logic
   _gpio_led_turn_on
     _gpio_pin_write_logic

Address spaces:
Name               Size   Autos  Total    Usage
BIGRAM            3935      0       0      0.0%
BITBANK14          256      0       0      0.0%
BANK14             256      0       0      0.0%
BITBANK13          256      0       0      0.0%
BANK13             256      0       0      0.0%
BITBANK12          256      0       0      0.0%
BANK12             256      0       0      0.0%
BITBANK11          256      0       0      0.0%
BANK11             256      0       0      0.0%
BITBANK10          256      0       0      0.0%
BANK10             256      0       0      0.0%
BITBANK9           256      0       0      0.0%
BANK9              256      0       0      0.0%
BITBANK8           256      0       0      0.0%
BANK8              256      0       0      0.0%
BITBANK7           256      0       0      0.0%
BANK7              256      0       0      0.0%
BITBANK6           256      0       0      0.0%
BANK6              256      0       0      0.0%
BITBANK5           256      0       0      0.0%
BANK5              256      0       0      0.0%
BITBANK4           256      0       0      0.0%
BANK4              256      0       0      0.0%
BITBANK3           256      0       0      0.0%
BANK3              256      0       0      0.0%
BITBANK2           256      0       0      0.0%
BANK2              256      0       0      0.0%
BITBANK1           256      0       0      0.0%
BANK1              256      0       0      0.0%
BITBANK0           160      0       0      0.0%
BANK0              160      0       0      0.0%
BITBIGSFRh         127      0       0      0.0%
BITBANK15           96      0       0      0.0%
BANK15              96      0       0      0.0%
BITCOMRAM           95      0       0      0.0%
COMRAM              95     20      38     40.0%
BITBIGSFRl          32      0       0      0.0%
STACK                0      0       0      0.0%
DATA                 0      0      38      0.0%


Microchip Technology PIC18 Macro Assembler V3.00 build 20241204225717 
Symbol Table                                                                                   Sun Jul 13 14:57:04 2025

                                         l202 1574                                           l210 14F0  
                                         l204 15BC                                           l214 154A  
                                         l306 1152                                           l330 1472  
                                         l402 1386                                           l332 14D8  
                                         l404 1380                                           l325 1274  
                                         l413 142C                                           l165 12DA  
                                         l318 1188                                           l406 138E  
                                         l174 135E                                           l344 164E  
                                         l346 1678                                           l393 1690  
                                         l299 1064                                           l396 16AE  
                                         l399 16D2                                           u990 1168  
                                         u991 1164                                           wreg 0FE8  
                                        l2041 15DE                                          l2043 15F0  
                                        l2035 15BE                                          l2301 1338  
                                        l2045 15FC                                          l2037 15BE  
                                        l2303 125C                                          l2047 160E  
                                        l2039 15D2                                          l1801 14D6  
                                        l1813 1692                                          l1805 167A  
                                        l1901 13D2                                          l1751 118E  
                                        l1823 16B0                                          l1815 169C  
                                        l1807 168A                                          l1911 141A  
                                        l1903 13E2                                          l1753 11EE  
                                        l1825 16BE                                          l1817 169E  
                                        l1905 1406                                          l1913 142A  
                                        l1841 12B2                                          l1833 1276  
                                        l2297 1532                                          l1921 14F0  
                                        l1771 106A                                          l1747 1154  
                                        l1827 16C0                                          l1907 1408  
                                        l1851 12FC                                          l1843 12BA  
                                        l1835 1286                                          l2299 15A4  
                                        l1923 1502                                          l1931 1548  
                                        l1773 10CA                                          l1757 1248  
                                        l1749 1168                                          l1829 16D0  
                                        l1909 1418                                          l1845 12D4  
                                        l1861 135C                                          l1837 128C  
                                        l1941 155C                                          l1925 1502  
                                        l1917 14DA                                          l1767 1030  
                                        l1759 1272                                          l1783 161E  
                                        l1871 1370                                          l1847 12DE  
                                        l1839 1298                                          l1943 1562  
                                        l1951 1586                                          l1919 14EA  
                                        l1777 1124                                          l1769 1044  
                                        l1785 162E                                          l1793 142E  
                                        l1873 1388                                          l1857 131A  
                                        l1945 1562                                          l1953 15BA  
                                        l1929 1514                                          l1779 1150  
                                        l1787 1654                                          l1795 1442  
                                        l1891 13B0                                          l1875 138C  
                                        l1859 134E                                          l1947 1574  
                                        l1939 154C                                          l1789 1676  
                                        l1797 1462                                          l1893 13BE  
                                        l1885 1390                                          l1869 1360  
                                        l1799 1478                                          l1887 139E  
                                        l1889 13A0                                          l1899 13C0  
                         gpio_pin_init@Retval 000C                                          u1000 1188  
                                        u1001 1184                                          u1100 1442  
                                        u1101 143E                                          u1030 1044  
                                        u1014 11AC                                          u1110 1462  
                                        u1031 1040                                          u1015 11A8  
                                        u1111 145E                                          u1040 1064  
                                        u1024 120C                                          u1120 1472  
                                        u1200 12F8                                          u1041 1060  
                                        u1025 1208                                          u1121 146E  
                                        u1201 12F4                                          u1210 1316  
                                        u1211 1312                                          u1140 168A  
                                        u1220 1370                                          u1141 1686  
                                        u1221 136C                                          u1070 113A  
                                        u1054 1088                                          u1150 16AE  
                                        u1134 14CA                                          u1230 1380  
                                        u1071 1134                                          u1055 1084  
                                        u1151 16AA                                          u1135 14C6  
                                        u1231 137C                                          u1064 10E8  
                                        u1080 162E                                          u1160 16D0  
                                        u1240 13B0                                          u1065 10E4  
                                        u1081 162A                                          u1161 16CC  
                                        u1241 13AC                                          u1090 164E  
                                        u1250 13E2                                          u1170 1286  
                                        u1410 15F0                                          u1091 164A  
                                        u1251 13DE                                          u1171 1282  
                                        u1411 15EC                                          u1076 113C  
                                        u1260 1418                                          u1180 12B2  
                                        u1420 160E                                          u1261 1414  
                                        u1181 12AE                                          u1421 160A  
                                        _LATA 0F89                                          u1270 142A  
                                        u1190 12D4                                          _LATB 0F8A  
                                        u1271 1426                                          u1191 12D0  
                                        _LATC 0F8B                                          u1280 14EA  
                                        _LATD 0F8C                                          u1281 14E6  
                                        _LATE 0F8D                                          u1290 155C  
                                        u1291 1558                        ?_gpio_keypad_read_data 000A  
                                        _led1 0021                             ?_gpio_led_turn_on 000A  
                                        _main 15BE                                          fsr1h 0FE2  
                                        fsr2h 0FDA                                          indf1 0FE7  
                                        indf2 0FDF                                          fsr1l 0FE1  
                                        fsr2l 0FD9                      ?_gpio_pin_direction_init 0001  
                         gpio_led_turn_on@led 000A                                          prodl 0FF3  
                                        start FFFC                            ??_gpio_led_turn_on 000B  
                                ___param_bank 0000                          _gpio_pin_write_logic 1154  
                                       ?_main 0001                                         _PORTA 0F80  
                                       _PORTB 0F81                                         _PORTC 0F82  
                                       _PORTD 0F83                                         _PORTE 0F84  
                                       _TRISA 0F92                                         _TRISB 0F93  
                                       _TRISC 0F94                                         _TRISD 0F95  
                                       _TRISE 0F96                             _gpio_led_turn_off 154C  
                          ?_gpio_led_turn_off 000A                          gpio_led_turn_off@led 000A  
                                       tablat 0FF5                                         status 0FD8  
                         ??_gpio_led_turn_off 000B                             ?_gpio_keypad_init 000D  
                             __initialization 16D4                            ??_gpio_keypad_init 000E  
                 gpio_keypad_read_data@Retval 000F                                  __end_of_main 161E  
                       ?_gpio_pin_write_logic 0001                   gpio_keypad_read_data@active 000E  
                 gpio_keypad_read_data@keypad 000A                      gpio_pin_read_logic@logic 0002  
                                      ??_main 0014                     __end_of_gpio_led_turn_off 15BE  
                               __activetblptr 0002                                 _gpio_led_init 1276  
                                      _data13 0026                              __end_of_lat_regs 101B  
                               _gpio_pin_init 161E                                        isa$std 0001  
                            gpio_led_init@led 000A                                  __pdataCOMRAM 0015  
                                __mediumconst 1000                                        tblptrh 0FF7  
                                      tblptrl 0FF6                                        tblptru 0FF8  
                   gpio_keypad_read_data@data 000B                     gpio_keypad_read_data@read 0010  
                                  __accesstop 0060                       __end_of__initialization 16FA  
                              ?_gpio_led_init 000A                                 ___rparam_used 0001  
                      ??_gpio_pin_write_logic 0003                                __pcstackCOMRAM 0001  
                              ?_gpio_pin_init 000A                       ??_gpio_keypad_read_data 000C  
        gpio_dc_motor_rotate_clock_wise@F3776 0017                               ??_gpio_led_init 000B  
                                     __Hparam 0000                                       __Lparam 0000  
                             ??_gpio_pin_init 000B                           _gpio_pin_read_logic 142E  
                                __psmallconst 1000                                       __pcinit 16D4  
gpio_dc_motor_rotate_counter_clock_wise@F3782 0015                                       __ramtop 1000  
                                     __ptext0 15BE                                       __ptext1 14DA  
                                     __ptext2 154C                                       __ptext3 1276  
                                     __ptext4 1360                                       __ptext5 142E  
                                     __ptext6 167A                                       __ptext7 161E  
                                     __ptext8 1154                                       __ptext9 1030  
                                     _keypad1 0019                        gpio_led_turn_on@Retval 000D  
                        ?_gpio_pin_read_logic 0001                                       main@ret 0014  
                        end_of_initialization 16FA                                 __Lmediumconst 0000  
                           __end_of_port_regs 1025                                       postdec1 0FE5  
                                     postinc0 0FEE                                       postinc2 0FDE  
                           __end_of_tris_regs 102F                         ??_gpio_pin_read_logic 0003  
                            gpio_pin_init@pin 000A                       _gpio_pin_direction_init 1030  
                            _gpio_led_turn_on 14DA                                 __pidataCOMRAM 1704  
                         start_initialization 16D4                 __end_of_gpio_keypad_read_data 142E  
                            _gpio_keypad_init 167A                                   __pbssCOMRAM 0024  
                   ??_gpio_pin_direction_init 0002                     gpio_pin_write_logic@logic 0002  
                                 __smallconst 1000                         __end_of_gpio_led_init 1360  
                         __end_of_keypad_btns 1011                         __end_of_gpio_pin_init 167A  
                         gpio_led_init@Retval 000E                                     _port_regs 101B  
               gpio_keypad_read_data@deactive 000D                                     _tris_regs 1025  
             __end_of_gpio_pin_direction_init 1154                       gpio_pin_write_logic@pin 0001  
                                   copy_data0 16E8                      __end_of_gpio_led_turn_on 154C  
                      gpio_pin_read_logic@pin 0001                                      __Hrparam 0000  
                                    __Lrparam 0000                             gpio_keypad_init@i 000F  
                           gpio_keypad_init@j 0010                   __end_of_gpio_pin_read_logic 14DA  
                                 _keypad_btns 1001                                      _lat_regs 1011  
                    __end_of_gpio_keypad_init 16D4                                      isa$xinst 0000  
                   gpio_pin_read_logic@Retval 0008                            gpio_led_init@logic 000D  
                     gpio_led_turn_off@Retval 000D                  __end_of_gpio_pin_write_logic 1276  
                    gpio_dc_motor_brake@F3770 0024                        gpio_keypad_init@Retval 000E  
                       _gpio_keypad_read_data 1360                        gpio_keypad_init@keypad 000D  
                  gpio_pin_write_logic@Retval 0009                 gpio_pin_direction_init@Retval 0008  
                      gpio_keypad_read_data@i 0012                        gpio_keypad_read_data@j 0011  
                      gpio_keypad_read_data@k 0013                    gpio_pin_direction_init@pin 0001  
